(lp0
F3.1415927410125732
aF3.1415927410125732
aF0.0
aF0.0
aF3.1415927410125732
aF0.0
aF0.010790920816361904
aF1.5739028453826904
aF0.9609700441360474
aF0.0029852762818336487
aF1.2905030250549316
aF-0.2766363024711609
aF2.225430965423584
aF2.927096128463745
aF0.1702880859375
aF0.781684160232544
aF2.8650410175323486
aF0.5999765396118164
aF-2.448340654373169
aF0.3363173007965088
aF0.2180333137512207
aF-0.6236673593521118
aF2.858917474746704
aF0.7506667375564575
aF2.5665669441223145
aF2.852290630340576
aF29.681232452392578
aF99.71762084960938
aF2.9510297775268555
aF153.86572265625
aF0.69325190782547
aF-2.8052754402160645
aF-0.2180333137512207
aF0.6236673593521118
aF-0.2826751172542572
aF-0.7506667375564575
aF1.9539018869400024
aF3.1125898361206055
aF4.9455671310424805
aF170.47206115722656
aF3.069732189178467
aF68.70333099365234
aF3.1415927410125732
aF3.1415927410125732
aF0.0
aF0.0
aF3.1415927410125732
aF0.0
aF-0.9736954569816589
aF1.4286150932312012
aF0.9853469133377075
aF-0.1410495936870575
aF1.4737776517868042
aF-0.0958980917930603
aF2.433379650115967
aF2.8902363777160645
aF0.16475169360637665
aF0.6415888667106628
aF2.925119400024414
aF0.749146580696106
aF-2.2863895893096924
aF-0.058476369827985764
aF-0.04413967207074165
aF-0.7539686560630798
aF-3.0743491649627686
aF0.6554257869720459
aF0.4332287013530731
aF0.8552031517028809
aF3.083116292953491
aF0.04413967207074165
aF0.7539686560630798
aF0.06724350154399872
aF-0.6554257869720459
aF1.0
aF-0.7082130908966064
aF-0.25135618448257446
aF-0.16475169360637665
aF-0.6415888667106628
aF-0.21647320687770844
aF-0.749146580696106
aF1.7501660585403442
aF3.1414031982421875
aF0.0384892076253891
aF203.26121520996094
aF3.1405482292175293
aF36.85499954223633
aF1.9141035079956055
aF-2.215949058532715
aF-2.5827536582946777
aF1.943738579750061
aF-1.833594799041748
aF0.6948131918907166
aF0.1931091696023941
aF1.5891557931900024
aF-3.127326011657715
aF-2.718564033508301
aF190.54249572753906
aF-2.481013298034668
aF3.498643159866333
aF32.6495246887207
aF1.8604061603546143
aF-3.1376309394836426
aF-0.8533198237419128
aF215.39266967773438
aF-3.12829852104187
aF64.1844253540039
aF1.9539018869400024
aF3.1125898361206055
aF4.9455671310424805
aF170.47206115722656
aF3.069732189178467
aF68.70333099365234
aF3.061763048171997
aF2.086387872695923
aF6.405874252319336
aF3.6303558349609375
aF3.001357316970825
aF45.379608154296875
aF-1.223812222480774
aF0.06763200461864471
aF2.276124954223633
aF-33.60322570800781
aF0.18516787886619568
aF-12.151412963867188
aF0.6402208805084229
aF-2.8310909271240234
aF-0.18825796246528625
aF0.5866913199424744
aF-0.23461811244487762
aF-0.7876244187355042
aF1.6456660032272339
aF-2.9464173316955566
aF-44.34760665893555
aF224.32669067382812
aF-1.933443307876587
aF16.826719284057617
aF1.583924651145935
aF-2.952023983001709
aF-41.506351470947266
aF216.32252502441406
aF-1.639115810394287
aF2.840113878250122
aF2.7876534461975098
aF-2.6696937084198
aF-1.3228542804718018
aF2.592017412185669
aF-2.955204963684082
aF7.014949798583984
aF3.1415927410125732
aF3.1415927410125732
aF0.0
aF0.0
aF3.1415927410125732
aF0.0
aF2.2194876670837402
aF2.4477829933166504
aF0.5524724125862122
aF0.6642202138900757
aF2.3099231719970703
aF0.5035730004310608
aF2.9839351177215576
aF-1.713990330696106
aF-0.736548125743866
aF0.1061960756778717
aF-2.3074262142181396
aF0.6679964065551758
aF-2.208157777786255
aF0.485291451215744
aF0.39021924138069153
aF-0.7399553656578064
aF2.5227200984954834
aF0.5479005575180054
aF1.9499629735946655
aF-3.0199086666107178
aF-20.2827205657959
aF165.86001586914062
aF-2.843806505203247
aF66.08638000488281
aF3.1415927410125732
aF3.1415927410125732
aF0.0
aF0.0
aF3.1415927410125732
aF0.0
aF1.9499629735946655
aF-3.0199086666107178
aF-20.2827205657959
aF165.86001586914062
aF-2.843806505203247
aF66.08638000488281
aF1.9499629735946655
aF-3.0199086666107178
aF-20.2827205657959
aF165.86001586914062
aF-2.843806505203247
aF66.08638000488281
aF-3.029219150543213
aF-1.2699480056762695
aF-17.551254272460938
aF-5.445556640625
aF-2.792750835418701
aF48.25529479980469
aF-3.029219150543213
aF-1.2699480056762695
aF-17.551254272460938
aF-5.445556640625
aF-2.792750835418701
aF48.25529479980469
aF3.1415927410125732
aF3.1415927410125732
aF0.0
aF0.0
aF3.1415927410125732
aF0.0
aF2.0992631912231445
aF2.548737049102783
aF0.5028780698776245
aF0.7464426755905151
aF2.2848756313323975
aF0.4358176290988922
aF2.9208498001098633
aF-1.7557010650634766
aF-0.7603432536125183
aF0.1422155797481537
aF-2.2656443119049072
aF0.6337608695030212
aF-2.3476574420928955
aF0.5638792514801025
aF0.4110861122608185
aF-0.6500754356384277
aF2.569972276687622
aF0.6390697360038757
aF1.8562815189361572
aF-2.9819281101226807
aF-28.905025482177734
aF179.4949951171875
aF-2.63977313041687
aF52.68224334716797
aF-2.3476574420928955
aF0.563879132270813
aF0.4110860526561737
aF-0.6500754952430725
aF2.569972276687622
aF0.639069676399231
aF1.7714364528656006
aF-2.9496729373931885
aF-37.5273323059082
aF193.12997436523438
aF-2.3789854049682617
aF39.27810287475586
aF1.9499629735946655
aF-3.0199086666107178
aF-20.2827205657959
aF165.86001586914062
aF-2.843806505203247
aF66.08638000488281
aF-3.029219150543213
aF-1.2699480056762695
aF-17.551254272460938
aF-5.445556640625
aF-2.792750835418701
aF48.25529479980469
aF-2.3567028045654297
aF-1.2760578393936157
aF-35.818729400634766
aF-10.873870849609375
aF-1.8658175468444824
aF10.884933471679688
aF3.1415927410125732
aF3.1415927410125732
aF0.0
aF0.0
aF3.1415927410125732
aF0.0
aF2.0992631912231445
aF2.548737049102783
aF0.5028780698776245
aF0.7464426755905151
aF2.2848756313323975
aF0.4358176290988922
aF2.5169179439544678
aF-1.9271540641784668
aF-0.8436068892478943
aF0.3140329122543335
aF-2.0474021434783936
aF0.4355579614639282
aF-2.5013718605041504
aF0.31050169467926025
aF0.18825796246528625
aF-0.5866913199424744
aF2.9069745540618896
aF0.7876244187355042
aF1.7088185548782349
aF-2.944591522216797
aF-40.22438049316406
aF201.53512573242188
aF-2.1788017749786377
aF27.994327545166016
aF-2.5013716220855713
aF0.3105015754699707
aF0.18825794756412506
aF-0.5866914987564087
aF2.9069745540618896
aF0.7876242995262146
aF1.6502255201339722
aF-2.9399259090423584
aF-42.92142868041992
aF209.9402618408203
aF-1.9420697689056396
aF16.71055030822754
aF1.7714364528656006
aF-2.9496729373931885
aF-37.5273323059082
aF193.12997436523438
aF-2.3789854049682617
aF39.27810287475586
aF-2.3567028045654297
aF-1.2760578393936157
aF-35.818729400634766
aF-10.873870849609375
aF-1.8658175468444824
aF10.884933471679688
aF-0.8303892612457275
aF-1.1625120639801025
aF-41.34067916870117
aF-17.883682250976562
aF-1.1943317651748657
aF-16.342758178710938
aF3.1415927410125732
aF3.1415927410125732
aF0.0
aF0.0
aF3.1415927410125732
aF0.0
aF2.0992631912231445
aF2.548737049102783
aF0.5028780698776245
aF0.7464426755905151
aF2.2848756313323975
aF0.4358176290988922
aF1.87980055809021
aF-2.087247371673584
aF-0.8589704632759094
aF0.4877740442752838
aF-1.7501264810562134
aF0.1557120680809021
aF-2.669473648071289
aF-0.20972445607185364
aF-0.09635039418935776
aF-0.45265868306159973
aF-3.0333268642425537
aF0.8864630460739136
aF1.6080626249313354
aF-2.948256492614746
aF-41.973941802978516
aF214.3916015625
aF-1.7589775323867798
aF7.993285179138184
aF-2.6694741249084473
aF-0.20972472429275513
aF-0.09635043889284134
aF-0.4526582956314087
aF-3.0333268642425537
aF0.8864632248878479
aF1.5674880743026733
aF-2.9562737941741943
aF-41.02645492553711
aF218.84292602539062
aF-1.5531514883041382
aF-0.7239801287651062
aF1.6502255201339722
aF-2.9399259090423584
aF-42.92142868041992
aF209.9402618408203
aF-1.9420697689056396
aF16.71055030822754
aF-0.8303892612457275
aF-1.1625120639801025
aF-41.34067916870117
aF-17.883682250976562
aF-1.1943317651748657
aF-16.342758178710938
aF-0.6246570348739624
aF-1.002864956855774
aF-39.0572624206543
aF-24.920639038085938
aF-0.8463293313980103
aF-34.565765380859375
aF-0.6686782240867615
aF-1.0259807109832764
aF-39.516414642333984
aF-23.946731567382812
aF-0.9165164828300476
aF-30.30828857421875
aF-0.31456565856933594
aF-1.37674880027771
aF-44.78630447387695
aF-8.801422119140625
aF-1.0274465084075928
aF-27.050582885742188
aF-2.109144449234009
aF0.1387050598859787
aF0.11900408565998077
aF-0.852455735206604
aF2.9119510650634766
aF0.5090749263763428
aF1.7754130363464355
aF-3.0322394371032715
aF-21.3780460357666
aF194.71548461914062
aF-2.654967784881592
aF40.407554626464844
aF1.6837081909179688
aF-3.0247318744659424
aF-20.825729370117188
aF177.39791870117188
aF-2.3388583660125732
aF20.115890502929688
aF0.7281308770179749
aF2.417929172515869
aF0.283214807510376
aF0.32053449749946594
aF0.6672288179397583
aF-0.35952213406562805
aF3.1415927410125732
aF3.1415927410125732
aF0.0
aF0.0
aF3.1415927410125732
aF0.0
aF-0.06080179661512375
aF1.5580724477767944
aF0.9787697792053223
aF-0.012454422190785408
aF1.3647414445877075
aF-0.20458394289016724
aF2.2840538024902344
aF2.950385570526123
aF0.1448419988155365
aF0.7482599020004272
aF2.9214887619018555
aF0.6474009156227112
aF-2.4068779945373535
aF0.21524910628795624
aF0.14501895010471344
aF-0.6632887721061707
aF2.946577548980713
aF0.7341781258583069
aF1.8086808919906616
aF-3.0678205490112305
aF-14.983026504516602
aF202.73040771484375
aF-2.8457396030426025
aF49.157196044921875
aF-2.4068782329559326
aF0.2152491807937622
aF0.14501899480819702
aF-0.6632887721061707
aF2.946577548980713
aF0.7341781854629517
aF1.688784122467041
aF-3.0546131134033203
aF-19.465938568115234
aF223.234375
aF-2.507356643676758
aF26.461851119995117
aF1.9463824033737183
aF-3.0840351581573486
aF-10.500115394592285
aF182.2264404296875
aF-2.996485471725464
aF71.8525390625
aF2.8687562942504883
aF-2.365978717803955
aF-10.773433685302734
aF10.986343383789062
aF-2.8737924098968506
aF39.26301574707031
aF0.08618088066577911
aF-1.656859040260315
aF-21.03915023803711
aF1.8151702880859375
aF-0.7860875129699707
aF-21.010162353515625
aF3.1415927410125732
aF3.1415927410125732
aF0.0
aF0.0
aF3.1415927410125732
aF0.0
aF0.015564165078103542
aF1.5743424892425537
aF0.975010097026825
aF0.003457605605944991
aF1.3467925786972046
aF-0.22213375568389893
aF0.8553085327148438
aF-2.9427027702331543
aF-0.15039756894111633
aF0.7461882829666138
aF-0.22787919640541077
aF-0.6485242247581482
aF2.400888204574585
aF2.9007468223571777
aF0.163511261343956
aF0.6657260060310364
aF2.9206736087799072
aF0.7280610799789429
aF1.6337708234786987
aF-3.0358526706695557
aF-22.417644500732422
aF211.21669006347656
aF-2.1068849563598633
aF13.318887710571289
aF2.400888442993164
aF2.9007465839385986
aF0.163511261343956
aF0.665725827217102
aF2.9206736087799072
aF0.7280611991882324
aF1.5716794729232788
aF-3.0149178504943848
aF-25.36935043334961
aF199.19900512695312
aF-1.5777307748794556
aF0.17592379450798035
aF1.688784122467041
aF-3.0546131134033203
aF-19.465938568115234
aF223.234375
aF-2.507356643676758
aF26.461851119995117
aF0.08618088066577911
aF-1.656859040260315
aF-21.03915023803711
aF1.8151702880859375
aF-0.7860875129699707
aF-21.010162353515625
aF-1.045662760734558
aF-0.5485956072807312
aF-20.945114135742188
aF-34.270263671875
aF-0.8120815753936768
aF-19.85614013671875
aF3.1415927410125732
aF3.1415927410125732
aF0.0
aF0.0
aF3.1415927410125732
aF0.0
aF0.015564165078103542
aF1.5743424892425537
aF0.975010097026825
aF0.003457605605944991
aF1.3467925786972046
aF-0.22213375568389893
aF-0.5612413287162781
aF-0.3445312976837158
aF-0.18759901821613312
aF-0.5227879881858826
aF-0.22188328206539154
aF-0.8315643668174744
aF1.0324482917785645
aF-3.002887487411499
aF-0.11900408565998077
aF0.852455735206604
aF-0.2296416163444519
aF-0.5090749263763428
aF1.598846197128296
aF-3.015465259552002
aF-24.160751342773438
aF190.54150390625
aF-1.7885583639144897
aF5.346065998077393
aF1.032448172569275
aF-3.002887487411499
aF-0.11900408565998077
aF0.852455735206604
aF-0.22964157164096832
aF-0.5090750455856323
aF1.6285502910614014
aF-3.0160651206970215
aF-22.952150344848633
aF181.88400268554688
aF-2.000431537628174
aF10.51620864868164
aF1.5716794729232788
aF-3.0149178504943848
aF-25.36935043334961
aF199.19900512695312
aF-1.5777307748794556
aF0.17592379450798035
aF-1.045662760734558
aF-0.5485956072807312
aF-20.945114135742188
aF-34.270263671875
aF-0.8120815753936768
aF-19.85614013671875
aF-1.5672892332077026
aF-0.4307992458343506
aF-17.1126708984375
aF-37.23474884033203
aF-1.563165545463562
aF-0.130584716796875
aF3.1415927410125732
aF3.1415927410125732
aF0.0
aF0.0
aF3.1415927410125732
aF0.0
aF0.015564165078103542
aF1.5743424892425537
aF0.975010097026825
aF0.003457605605944991
aF1.3467925786972046
aF-0.22213375568389893
aF-1.1466646194458008
aF-0.09900152683258057
aF-0.0901569277048111
aF-0.9076848030090332
aF-0.21652501821517944
aF-0.40985360741615295
aF0.442904531955719
aF-2.690943479537964
aF-0.20304454863071442
aF0.4196383059024811
aF-0.22560222446918488
aF-0.8846901059150696
aF1.6648175716400146
aF-3.021998882293701
aF-21.494482040405273
aF178.87139892578125
aF-2.236159086227417
aF16.867446899414062
aF0.4429051876068115
aF-2.690943956375122
aF-0.20304454863071442
aF0.41963890194892883
aF-0.22560228407382965
aF-0.8846898674964905
aF1.7020673751831055
aF-3.0281448364257812
aF-20.036813735961914
aF175.85877990722656
aF-2.429622173309326
aF23.218685150146484
aF1.6285502910614014
aF-3.0160651206970215
aF-22.952150344848633
aF181.88400268554688
aF-2.000431537628174
aF10.51620864868164
aF-1.5672892332077026
aF-0.4307992458343506
aF-17.1126708984375
aF-37.23474884033203
aF-1.563165545463562
aF-0.130584716796875
aF-1.9559344053268433
aF-0.43908149003982544
aF-14.60833740234375
aF-31.104141235351562
aF-2.2828712463378906
aF12.609085083007812
aF-1.8531720638275146
aF-0.43928128480911255
aF-15.305240631103516
aF-32.571075439453125
aF-2.123927593231201
aF9.449790954589844
aF-2.5627715587615967
aF-1.2667639255523682
aF-20.23802947998047
aF-6.349884033203125
aF-2.0184247493743896
aF9.716957092285156
aF-2.157254934310913
aF-0.08691847324371338
aF-0.07238736003637314
aF-0.8307207226753235
aF-3.0111916065216064
aF0.5519629716873169
aF1.7701468467712402
aF-3.0489845275878906
aF-17.42441177368164
aF187.61402893066406
aF-2.7107067108154297
aF37.904396057128906
aF1.6989821195602417
aF-3.0601019859313965
aF-13.9400053024292
aF170.6839141845703
aF-2.5768046379089355
aF21.999889373779297
aF0.5713276267051697
aF2.6410257816314697
aF0.7018148899078369
aF1.282934308052063
aF0.33815306425094604
aF-1.9957188367843628
aF3.1415927410125732
aF3.1415927410125732
aF0.0
aF0.0
aF3.1415927410125732
aF0.0
aF-0.82732754945755
aF1.3339853286743164
aF0.9502345323562622
aF-0.22932903468608856
aF1.3524302244186401
aF-0.21086129546165466
aF2.2808330059051514
aF2.7337348461151123
aF0.3113781809806824
aF0.72063809633255
aF2.6758155822753906
aF0.6194549202919006
aF-2.4283134937286377
aF0.015123266726732254
aF0.009895682334899902
aF-0.6542850732803345
aF3.128507137298584
aF0.7561832666397095
aF1.8040567636489868
aF-3.138455629348755
aF-0.6357939839363098
aF202.67822265625
aF-3.128389835357666
aF48.15335464477539
aF-2.4283132553100586
aF0.015123263001441956
aF0.009895680472254753
aF-0.6542851328849792
aF3.128507137298584
aF0.7561831474304199
aF1.687392234802246
aF-3.1374194622039795
aF-0.9258881211280823
aF221.85874938964844
aF-3.1059770584106445
aF25.985673904418945
aF1.9367589950561523
aF-3.1397087574005127
aF-0.34569984674453735
aF183.49771118164062
aF-3.136676788330078
aF70.32103729248047
aF2.8187813758850098
aF-3.076767921447754
aF-0.8002548217773438
aF12.327621459960938
aF-3.1198809146881104
aF36.85252380371094
aF0.1703600138425827
aF-2.53275203704834
aF-2.5310745239257812
aF3.63037109375
aF-0.11936641484498978
aF-21.103439331054688
aF3.1415927410125732
aF3.1415927410125732
aF0.0
aF0.0
aF3.1415927410125732
aF0.0
aF-0.8095106482505798
aF1.3375910520553589
aF0.9501649141311646
aF-0.22568970918655396
aF1.3482071161270142
aF-0.2150600701570511
aF0.8106983304023743
aF3.119236707687378
aF0.0162035059183836
aF0.724673330783844
aF0.02351643331348896
aF-0.6889020204544067
aF2.3868038654327393
aF2.6955652236938477
aF0.31132638454437256
aF0.6510857939720154
aF2.7189440727233887
aF0.692216157913208
aF1.6280784606933594
aF-3.1069533824920654
aF-7.231155872344971
aF208.67236328125
aF-2.5980215072631836
aF11.966277122497559
aF2.3868038654327393
aF2.6955652236938477
aF0.31132638454437256
aF0.6510857343673706
aF2.7189440727233887
aF0.692216157913208
aF1.5602940320968628
aF-3.072458028793335
aF-13.536423683166504
aF195.48597717285156
aF-1.4202698469161987
aF-2.0531198978424072
aF1.687392234802246
aF-3.1374194622039795
aF-0.9258881211280823
aF221.85874938964844
aF-3.1059770584106445
aF25.985673904418945
aF0.1703600138425827
aF-2.53275203704834
aF-2.5310745239257812
aF3.63037109375
aF-0.11936641484498978
aF-21.103439331054688
aF-1.0885534286499023
aF-0.2308240383863449
aF-8.548091888427734
aF-36.372886657714844
aF-0.421985387802124
aF-19.039932250976562
aF3.1415927410125732
aF3.1415927410125732
aF0.0
aF0.0
aF3.1415927410125732
aF0.0
aF-0.8095106482505798
aF1.3375910520553589
aF0.9501649141311646
aF-0.22568970918655396
aF1.3482071161270142
aF-0.2150600701570511
aF-0.5633615851402283
aF-0.5373713970184326
aF-0.3032272160053253
aF-0.5088881850242615
aF-0.3599727749824524
aF-0.805658757686615
aF0.9843377470970154
aF3.0546741485595703
aF0.07238736003637314
aF0.8307207226753235
aF0.1304011195898056
aF-0.5519629716873169
aF1.5952686071395874
aF-3.0641379356384277
aF-14.40134048461914
aF185.56015014648438
aF-1.8763083219528198
aF4.541982173919678
aF0.9843378663063049
aF3.0546741485595703
aF0.07238736003637314
aF0.830720841884613
aF0.1304011344909668
aF-0.5519629120826721
aF1.6341221332550049
aF-3.0548899173736572
aF-15.266257286071777
aF175.6343231201172
aF-2.2010626792907715
aF11.137084007263184
aF1.5602940320968628
aF-3.072458028793335
aF-13.536423683166504
aF195.48597717285156
aF-1.4202698469161987
aF-2.0531198978424072
aF-1.0885534286499023
aF-0.2308240383863449
aF-8.548091888427734
aF-36.372886657714844
aF-0.421985387802124
aF-19.039932250976562
aF-1.687919020652771
aF-0.217142716050148
aF-8.717422485351562
aF-39.513084411621094
aF-2.060741424560547
aF4.6491546630859375
aF3.1415927410125732
aF3.1415927410125732
aF0.0
aF0.0
aF3.1415927410125732
aF0.0
aF-0.8095106482505798
aF1.3375910520553589
aF0.9501649141311646
aF-0.22568970918655396
aF1.3482071161270142
aF-0.2150600701570511
aF-1.1718602180480957
aF-0.32139477133750916
aF-0.2933012545108795
aF-0.8809483647346497
aF-0.6684991717338562
aF-0.37135475873947144
aF0.43153584003448486
aF-2.8928511142730713
aF-0.10564586520195007
aF0.41592565178871155
aF-0.11643403023481369
aF-0.9032412767410278
aF1.676401972770691
aF-3.0580506324768066
aF-14.432071685791016
aF172.35015869140625
aF-2.4729971885681152
aF18.269123077392578
aF0.43153607845306396
aF-2.8928513526916504
aF-0.10564584285020828
aF0.4159258306026459
aF-0.1164340227842331
aF-0.9032411575317383
aF1.7199249267578125
aF-3.061336040496826
aF-13.59788703918457
aF169.06597900390625
aF-2.650085687637329
aF25.40116310119629
aF1.6341221332550049
aF-3.0548899173736572
aF-15.266257286071777
aF175.6343231201172
aF-2.2010626792907715
aF11.137084007263184
aF-1.687919020652771
aF-0.217142716050148
aF-8.717422485351562
aF-39.513084411621094
aF-2.060741424560547
aF4.6491546630859375
aF-2.093459129333496
aF-0.22544920444488525
aF-7.5149383544921875
aF-32.766510009765625
aF-2.762722969055176
aF18.87688446044922
aF-1.9934817552566528
aF-0.22212326526641846
aF-7.754077911376953
aF-34.33287811279297
aF-2.6762547492980957
aF15.442840576171875
aF-2.4005255699157715
aF-0.8940613865852356
aF-15.100624084472656
aF-12.129959106445312
aF-2.291238307952881
aF13.256088256835938
aF-2.168381690979004
aF-0.2867366075515747
aF-0.2368270456790924
aF-0.803178608417511
aF-2.7327632904052734
aF0.5466416478157043
aF1.7831504344940186
aF-3.115773916244507
aF-4.725242614746094
aF182.97499084472656
aF-3.022383451461792
aF39.45027160644531
aF1.7171542644500732
aF-3.127384662628174
aF-2.395735740661621
aF168.607666015625
aF-3.0455002784729004
aF24.85479164123535
aF1.5641669034957886
aF2.430041551589966
aF1.7651056051254272
aF2.0471420288085938
aF1.5631077289581299
aF-0.013571466319262981
aF3.1415927410125732
aF3.1415927410125732
aF0.0
aF0.0
aF3.1415927410125732
aF0.0
aF-1.207183599472046
aF1.1802276372909546
aF0.915138840675354
aF-0.37678077816963196
aF1.41538667678833
aF-0.14337755739688873
aF2.3144755363464355
aF2.634279251098633
aF0.378629207611084
aF0.681187629699707
aF2.5980443954467773
aF0.6265966296195984
aF-2.4551217555999756
aF-0.21704621613025665
aF-0.13842256367206573
aF-0.6277098655700684
aF-2.9628231525421143
aF0.7660414576530457
aF1.8075857162475586
aF3.0748019218444824
aF13.288392066955566
aF198.65951538085938
aF2.871192455291748
aF47.939823150634766
aF-2.4551217555999756
aF-0.21704621613025665
aF-0.13842256367206573
aF-0.6277098655700684
aF-2.9628231525421143
aF0.7660414576530457
aF1.6991753578186035
aF3.0630686283111572
aF16.931697845458984
aF215.1809539794922
aF2.5941824913024902
aF27.777481079101562
aF1.9286057949066162
aF3.0886871814727783
aF9.645086288452148
aF182.13809204101562
aF3.000901699066162
aF68.10216522216797
aF2.833789110183716
aF2.451195478439331
aF9.448692321777344
aF11.439041137695312
aF2.8847975730895996
aF35.98231506347656
aF0.2274850457906723
aF1.7961643934249878
aF15.834911346435547
aF3.6303558349609375
aF0.7902364730834961
aF-15.682418823242188
aF3.1415927410125732
aF3.1415927410125732
aF0.0
aF0.0
aF3.1415927410125732
aF0.0
aF-1.1887494325637817
aF1.1852636337280273
aF0.9161992073059082
aF-0.37183237075805664
aF1.409156322479248
aF-0.1493978202342987
aF0.7901358008384705
aF2.9019694328308105
aF0.17101797461509705
aF0.6999824643135071
aF0.2418171465396881
aF-0.693381130695343
aF2.4284744262695312
aF2.6053295135498047
aF0.3623974025249481
aF0.6097255349159241
aF2.666727304458618
aF0.7049134373664856
aF1.6420613527297974
aF3.0919206142425537
aF10.128214836120605
aF203.7342529296875
aF2.533289670944214
aF14.5437593460083
aF2.4284744262695312
aF2.6053292751312256
aF0.3623974323272705
aF0.6097255349159241
aF2.666727066040039
aF0.7049133777618408
aF1.5776091814041138
aF3.1243040561676025
aF3.3247311115264893
aF192.28753662109375
aF1.9461438655853271
aF1.31003737449646
aF1.6991753578186035
aF3.0630686283111572
aF16.931697845458984
aF215.1809539794922
aF2.5941824913024902
aF27.777481079101562
aF0.2274850457906723
aF1.7961643934249878
aF15.834911346435547
aF3.6303558349609375
aF0.7902364730834961
aF-15.682418823242188
aF-1.141411304473877
aF0.2424974888563156
aF8.19461441040039
aF-33.12757110595703
aF0.4953223764896393
aF-15.168350219726562
aF3.1415927410125732
aF3.1415927410125732
aF0.0
aF0.0
aF3.1415927410125732
aF0.0
aF-1.1887494325637817
aF1.1852636337280273
aF0.9161992073059082
aF-0.37183237075805664
aF1.409156322479248
aF-0.1493978202342987
aF-0.5142219662666321
aF-0.60701984167099
aF-0.3232521712779999
aF-0.465451180934906
aF-0.3738759160041809
aF-0.8239315748214722
aF0.9732109308242798
aF2.854856014251709
aF0.2368270456790924
aF0.803178608417511
aF0.4088292717933655
aF-0.5466416478157043
aF1.6127140522003174
aF3.1384873390197754
aF0.5680954456329346
aF182.9386444091797
aF3.06768798828125
aF7.672874450683594
aF0.9732109308242798
aF2.854856014251709
aF0.2368270605802536
aF0.803178608417511
aF0.4088292717933655
aF-0.5466417074203491
aF1.651476502418518
aF-3.12898588180542
aF-2.18854022026062
aF173.58975219726562
aF-2.9869117736816406
aF14.035711288452148
aF1.5776091814041138
aF3.1243040561676025
aF3.3247311115264893
aF192.28753662109375
aF1.9461438655853271
aF1.31003737449646
aF-1.141411304473877
aF0.2424974888563156
aF8.19461441040039
aF-33.12757110595703
aF0.4953223764896393
aF-15.168350219726562
aF-1.7738113403320312
aF0.11400257796049118
aF4.179075241088867
aF-36.498779296875
aF2.633984088897705
aF7.5133056640625
aF3.1415927410125732
aF3.1415927410125732
aF0.0
aF0.0
aF3.1415927410125732
aF0.0
aF-1.1887494325637817
aF1.1852636337280273
aF0.9161992073059082
aF-0.37183237075805664
aF1.409156322479248
aF-0.1493978202342987
aF-1.1302047967910767
aF-0.4497338533401489
aF-0.40014660358428955
aF-0.8289296627044678
aF-0.7971594929695129
aF-0.39084306359291077
aF0.4312070310115814
aF3.0902156829833984
aF0.021487828344106674
aF0.4178711473941803
aF0.023654025048017502
aF-0.9082521796226501
aF1.6944427490234375
aF-3.1277525424957275
aF-2.357234001159668
aF170.30917358398438
aF-3.0306813716888428
aF21.166099548339844
aF0.4312072694301605
aF3.0902156829833984
aF0.021487828344106674
aF0.417871356010437
aF0.0236540287733078
aF-0.9082520604133606
aF1.7386139631271362
aF-3.1264710426330566
aF-2.525928020477295
aF167.0286102294922
aF-3.0525622367858887
aF28.296489715576172
aF1.651476502418518
aF-3.12898588180542
aF-2.18854022026062
aF173.58975219726562
aF-2.9869117736816406
aF14.035711288452148
aF-1.7738113403320312
aF0.11400257796049118
aF4.179075241088867
aF-36.498779296875
aF2.633984088897705
aF7.5133056640625
aF-2.1984007358551025
aF0.11269991099834442
aF3.4044971466064453
aF-30.08051300048828
aF2.986827850341797
aF21.82196807861328
aF-2.0970375537872314
aF0.11460047215223312
aF3.640108108520508
aF-31.624290466308594
aF2.9459705352783203
aF18.36988067626953
aF-2.538256883621216
aF-0.173789381980896
aF-2.0814476013183594
aF-11.85601806640625
aF-3.0212085247039795
aF17.206443786621094
aF-2.2236790657043457
aF-0.652538001537323
aF-0.5189169645309448
aF-0.6790179014205933
aF-2.3565516471862793
aF0.5192878246307373
aF1.7853089570999146
aF3.0951876640319824
aF8.711965560913086
aF187.60279846191406
aF2.9315831661224365
aF40.87202835083008
aF1.7096774578094482
aF3.097986936569214
aF7.645330905914307
aF175.2179412841797
aF2.839022636413574
aF24.492143630981445
aF1.488425850868225
aF3.0668609142303467
aF0.27219483256340027
aF3.6355106830596924
aF0.736613929271698
aF-0.30013781785964966
aF3.1415927410125732
aF3.1415927410125732
aF0.0
aF0.0
aF3.1415927410125732
aF0.0
aF-1.2975962162017822
aF0.9751499891281128
aF0.8177427053451538
aF-0.554236888885498
aF1.383117437362671
aF-0.15530075132846832
aF2.4427804946899414
aF2.406691789627075
aF0.5026307106018066
aF0.556141197681427
aF2.4920949935913086
aF0.6618680953979492
aF-2.4403185844421387
aF-0.42524030804634094
aF-0.2804625928401947
aF-0.6192967295646667
aF-2.776318073272705
aF0.7333568334579468
aF1.8072673082351685
aF3.009955883026123
aF25.196979522705078
aF190.30606079101562
aF2.63918399810791
aF45.85987854003906
aF-2.4403185844421387
aF-0.42524033784866333
aF-0.2804626226425171
aF-0.6192967295646667
aF-2.776318073272705
aF0.7333568334579468
aF1.7062463760375977
aF2.986893892288208
aF32.03025817871094
aF205.39479064941406
aF2.2890188694000244
aF27.992143630981445
aF1.9196289777755737
aF3.037168502807617
aF18.36370277404785
aF175.21731567382812
aF2.8610339164733887
aF63.72761154174805
aF3.0064995288848877
aF1.8302091360092163
aF19.435239791870117
aF5.1579742431640625
aF2.6682724952697754
aF37.94834899902344
aF-1.728118604660267e-06
aF1.5707958936691284
aF32.07197952270508
aF-1.52587890625e-05
aF1.30214262008667
aF-8.8297119140625
aF3.1415927410125732
aF3.1415927410125732
aF0.0
aF0.0
aF3.1415927410125732
aF0.0
aF-1.4838248491287231
aF0.8846868872642517
aF0.772538959980011
aF-0.6325674653053284
aF1.4995235204696655
aF-0.05515444278717041
aF0.7235841155052185
aF2.505814552307129
aF0.43900975584983826
aF0.5948626399040222
aF0.5777605175971985
aF-0.6733564138412476
aF2.5493991374969482
aF2.395167827606201
aF0.45875269174575806
aF0.49598070979118347
aF2.5849790573120117
aF0.7372578382492065
aF1.6566267013549805
aF3.0149450302124023
aF25.214439392089844
aF198.02586364746094
aF2.1650567054748535
aF17.038496017456055
aF2.5493991374969482
aF2.395167827606201
aF0.4587526321411133
aF0.49598070979118347
aF2.5849790573120117
aF0.737257719039917
aF1.6027007102966309
aF3.045389413833618
aF18.39862060546875
aF190.6569366455078
aF1.8901957273483276
aF6.0848469734191895
aF1.7062463760375977
aF2.986893892288208
aF32.03025817871094
aF205.39479064941406
aF2.2890188694000244
aF27.992143630981445
aF-1.728118604660267e-06
aF1.5707958936691284
aF32.07197952270508
aF-1.52587890625e-05
aF1.30214262008667
aF-8.8297119140625
aF-1.183274269104004
aF0.6818385124206543
aF22.819725036621094
aF-28.113265991210938
aF1.1048766374588013
aF-11.474746704101562
aF3.1415927410125732
aF3.1415927410125732
aF0.0
aF0.0
aF3.1415927410125732
aF0.0
aF-1.4838248491287231
aF0.8846868872642517
aF0.772538959980011
aF-0.6325674653053284
aF1.4995235204696655
aF-0.05515444278717041
aF-0.411860853433609
aF-0.7764421701431274
aF-0.36593544483184814
aF-0.37254950404167175
aF-0.4053296744823456
aF-0.8528177738189697
aF0.9179136157035828
aF2.4890546798706055
aF0.5189169645309448
aF0.6790179014205933
aF0.7850409746170044
aF-0.5192878246307373
aF1.6266742944717407
aF3.0653719902038574
aF14.134033203125
aF185.07659912109375
aF2.2029709815979004
aF10.352482795715332
aF0.9179136753082275
aF2.4890546798706055
aF0.5189169645309448
aF0.6790180206298828
aF0.7850409746170044
aF-0.5192878246307373
aF1.65206778049469
aF3.0866637229919434
aF9.86944580078125
aF179.4962615966797
aF2.547802209854126
aF14.620118141174316
aF1.6027007102966309
aF3.045389413833618
aF18.39862060546875
aF190.6569366455078
aF1.8901957273483276
aF6.0848469734191895
aF-1.183274269104004
aF0.6818385124206543
aF22.819725036621094
aF-28.113265991210938
aF1.1048766374588013
aF-11.474746704101562
aF-1.6666152477264404
aF0.4644079804420471
aF15.171220779418945
aF-30.28485107421875
aF1.7603543996810913
aF2.9107742309570312
aF3.1415927410125732
aF3.1415927410125732
aF0.0
aF0.0
aF3.1415927410125732
aF0.0
aF-1.4838248491287231
aF0.8846868872642517
aF0.772538959980011
aF-0.6325674653053284
aF1.4995235204696655
aF-0.05515444278717041
aF-1.0076522827148438
aF-0.7125027775764465
aF-0.5898689031600952
aF-0.6828057169914246
aF-0.9396913051605225
aF-0.43108126521110535
aF0.38557925820350647
aF2.570207357406616
aF0.2350282073020935
aF0.36556094884872437
aF0.2552679777145386
aF-0.9006258845329285
aF1.6897855997085571
aF3.0954434871673584
aF8.167234420776367
aF176.84866333007812
aF2.7729644775390625
aF21.142976760864258
aF0.38557925820350647
aF2.570207118988037
aF0.2350282222032547
aF0.365560919046402
aF0.25526800751686096
aF-0.9006258249282837
aF1.7282965183258057
aF3.104497194290161
aF6.465022087097168
aF174.2010498046875
aF2.912029504776001
aF27.665836334228516
aF1.65206778049469
aF3.0866637229919434
aF9.86944580078125
aF179.4962615966797
aF2.547802209854126
aF14.620118141174316
aF-1.6666152477264404
aF0.4644079804420471
aF15.171220779418945
aF-30.28485107421875
aF1.7603543996810913
aF2.9107742309570312
aF-2.1384613513946533
aF0.43303751945495605
aF11.312509536743164
aF-24.469924926757812
aF2.5142996311187744
aF15.603958129882812
aF-2.025317668914795
aF0.45238953828811646
aF12.636442184448242
aF-26.0006103515625
aF2.358901023864746
aF12.705032348632812
aF-2.761971950531006
aF1.075045108795166
aF10.369770050048828
aF-5.6079559326171875
aF2.505979061126709
aF14.055976867675781
a.