(lp0
F3.1415927410125732
aF3.1415927410125732
aF0.0
aF0.0
aF3.1415927410125732
aF0.0
aF-0.06136220693588257
aF1.5524567365646362
aF0.9580644965171814
aF-0.017572473734617233
aF1.280686378479004
aF-0.2860133945941925
aF2.2160024642944336
aF2.9031777381896973
aF0.19062043726444244
aF0.7843256592750549
aF2.8292601108551025
aF0.5903364419937134
aF-2.453843116760254
aF0.332241415977478
aF0.21395397186279297
aF-0.6201003789901733
aF2.865374803543091
aF0.7547842264175415
aF2.5704641342163086
aF2.8512465953826904
aF29.670127868652344
aF99.30105590820312
aF2.9519100189208984
aF154.539306640625
aF0.6877496242523193
aF-2.8093512058258057
aF-0.21395397186279297
aF0.6201003789901733
aF-0.2762177586555481
aF-0.7547842264175415
aF1.9566240310668945
aF3.1097893714904785
aF5.397261619567871
aF169.6508331298828
aF3.0634286403656006
aF68.90978240966797
aF3.1415927410125732
aF3.1415927410125732
aF0.0
aF0.0
aF3.1415927410125732
aF0.0
aF-0.9631281495094299
aF1.4125980138778687
aF0.9816386699676514
aF-0.1566021889448166
aF1.4603015184402466
aF-0.10890956223011017
aF2.444136381149292
aF2.8575520515441895
aF0.18428899347782135
aF0.6312692761421204
aF2.9016783237457275
aF0.7533503174781799
aF-2.277493715286255
aF-0.06471437960863113
aF-0.04922504350543022
aF-0.7595885992050171
aF-3.0658364295959473
aF0.6485384106636047
aF0.4448171854019165
aF0.8640990257263184
aF3.076878309249878
aF0.04922504350543022
aF0.7595885992050171
aF0.0757562518119812
aF-0.6485384106636047
aF1.0
aF-0.6974561810493469
aF-0.28404051065444946
aF-0.18428899347782135
aF-0.6312692761421204
aF-0.23991431295871735
aF-0.7533503174781799
aF1.7533378601074219
aF3.138270854949951
aF0.6737829446792603
aF202.8321075439453
aF3.1235992908477783
aF37.44208908081055
aF0.6656911969184875
aF-2.62783145904541
aF-6.313619136810303
aF11.188264846801758
aF-0.4171266555786133
aF-14.247761726379395
aF0.20777219533920288
aF1.5910181999206543
aF-3.1321394443511963
aF-1.797900915145874
aF190.18544006347656
aF-2.7043471336364746
aF3.8464365005493164
aF32.66666030883789
aF1.8621063232421875
aF-3.137540578842163
aF-0.8736158609390259
aF215.60055541992188
aF-3.128079652786255
aF64.64566040039062
aF1.9566240310668945
aF3.1097893714904785
aF5.397261619567871
aF169.6508331298828
aF3.0634286403656006
aF68.90978240966797
aF3.061762571334839
aF2.0863895416259766
aF6.405878067016602
aF3.63037109375
aF3.001357078552246
aF45.379608154296875
aF-1.227583646774292
aF0.09492132067680359
aF3.213085174560547
aF-33.748260498046875
aF0.26037395000457764
aF-12.060134887695312
aF0.6363494396209717
aF-2.8084747791290283
aF-0.20140863955020905
aF0.5820853114128113
aF-0.25030162930488586
aF-0.7877888083457947
aF1.6609010696411133
aF-2.944908380508423
aF-45.099544525146484
aF226.334716796875
aF-1.996493935585022
aF20.449209213256836
aF1.5828285217285156
aF-2.952659845352173
aF-41.21067810058594
aF215.52178955078125
aF-1.6336420774459839
aF2.5933330059051514
aF1.7305608987808228
aF-2.8997409343719482
aF-8.132494926452637
aF32.96778106689453
aF-2.1494362354278564
aF5.312358379364014
aF3.1415927410125732
aF3.1415927410125732
aF0.0
aF0.0
aF3.1415927410125732
aF0.0
aF2.2299373149871826
aF2.4220244884490967
aF0.5694472193717957
aF0.6498283743858337
aF2.2947499752044678
aF0.5034410357475281
aF2.977936029434204
aF-1.7235629558563232
aF-0.7268110513687134
aF0.11190439015626907
aF-2.3212127685546875
aF0.6776600480079651
aF-2.1901886463165283
aF0.4722575843334198
aF0.3840254545211792
aF-0.751798152923584
aF2.5199244022369385
aF0.536026120185852
aF1.9531300067901611
aF-3.021714210510254
aF-19.93412971496582
aF165.4888916015625
aF-2.8505473136901855
aF66.54659271240234
aF3.1415927410125732
aF3.1415927410125732
aF0.0
aF0.0
aF3.1415927410125732
aF0.0
aF1.9531300067901611
aF-3.021714210510254
aF-19.93412971496582
aF165.4888916015625
aF-2.8505473136901855
aF66.54659271240234
aF1.9531300067901611
aF-3.021714210510254
aF-19.93412971496582
aF165.4888916015625
aF-2.8505473136901855
aF66.54659271240234
aF-3.029219150543213
aF-1.2699480056762695
aF-17.551254272460938
aF-5.445556640625
aF-2.792750835418701
aF48.25529479980469
aF-3.029219150543213
aF-1.2699480056762695
aF-17.551254272460938
aF-5.445556640625
aF-2.792750835418701
aF48.25529479980469
aF3.1415927410125732
aF3.1415927410125732
aF0.0
aF0.0
aF3.1415927410125732
aF0.0
aF2.0849850177764893
aF2.543980121612549
aF0.5098234415054321
aF0.7490381002426147
aF2.2635135650634766
aF0.42310988903045654
aF2.8786959648132324
aF-1.7870008945465088
aF-0.7637627124786377
aF0.1677509844303131
aF-2.255286931991577
aF0.623318612575531
aF-2.3690333366394043
aF0.5533381104469299
aF0.3959122896194458
aF-0.6409380435943604
aF2.5996696949005127
aF0.6576107740402222
aF1.857498049736023
aF-2.9850685596466064
aF-28.238174438476562
aF178.93222045898438
aF-2.6501173973083496
aF52.75356674194336
aF-2.3690333366394043
aF0.5533382296562195
aF0.3959123194217682
aF-0.6409379243850708
aF2.5996696949005127
aF0.6576108336448669
aF1.7706170082092285
aF-2.953876495361328
aF-36.54221725463867
aF192.3755340576172
aF-2.3882131576538086
aF38.960540771484375
aF1.9531300067901611
aF-3.021714210510254
aF-19.93412971496582
aF165.4888916015625
aF-2.8505473136901855
aF66.54659271240234
aF-3.029219150543213
aF-1.2699480056762695
aF-17.551254272460938
aF-5.445556640625
aF-2.792750835418701
aF48.25529479980469
aF-2.2888612747192383
aF-1.2329961061477661
aF-35.060516357421875
aF-12.31549072265625
aF-1.8685545921325684
aF10.759429931640625
aF3.1415927410125732
aF3.1415927410125732
aF0.0
aF0.0
aF3.1415927410125732
aF0.0
aF2.0849850177764893
aF2.543980121612549
aF0.5098234415054321
aF0.7490381002426147
aF2.2635135650634766
aF0.42310988903045654
aF2.5262653827667236
aF-1.9324742555618286
aF-0.8363698720932007
aF0.3164152204990387
aF-2.062204360961914
aF0.44762349128723145
aF-2.5052433013916016
aF0.33311784267425537
aF0.20140863955020905
aF-0.5820853114128113
aF2.8912911415100098
aF0.7877888083457947
aF1.707811713218689
aF-2.9476261138916016
aF-39.42766571044922
aF200.71469116210938
aF-2.1827986240386963
aF27.674407958984375
aF-2.5052430629730225
aF0.33311763405799866
aF0.20140856504440308
aF-0.5820854902267456
aF2.8912911415100098
aF0.7877886891365051
aF1.6490288972854614
aF-2.941887617111206
aF-42.313114166259766
aF209.05384826660156
aF-1.9403151273727417
aF16.388277053833008
aF1.7706170082092285
aF-2.953876495361328
aF-36.54221725463867
aF192.3755340576172
aF-2.3882131576538086
aF38.960540771484375
aF-2.2888612747192383
aF-1.2329961061477661
aF-35.060516357421875
aF-12.31549072265625
aF-1.8685545921325684
aF10.759429931640625
aF-0.884498119354248
aF-1.1186457872390747
aF-40.87897491455078
aF-19.855331420898438
aF-1.1921356916427612
aF-16.264129638671875
aF3.1415927410125732
aF3.1415927410125732
aF0.0
aF0.0
aF3.1415927410125732
aF0.0
aF2.0849850177764893
aF2.543980121612549
aF0.5098234415054321
aF0.7490381002426147
aF2.2635135650634766
aF0.42310988903045654
aF1.9416158199310303
aF-2.079814910888672
aF-0.8579585552215576
aF0.47880178689956665
aF-1.7844656705856323
aF0.18616114556789398
aF-2.6649081707000732
aF-0.13702887296676636
aF-0.06314398348331451
aF-0.4579200744628906
aF-3.0705041885375977
aF0.8867480158805847
aF1.6066880226135254
aF-2.9487903118133545
aF-41.69217300415039
aF213.55691528320312
aF-1.752687931060791
aF7.668209552764893
aF-2.6649084091186523
aF-0.1370285600423813
aF-0.06314381957054138
aF-0.4579199254512787
aF-3.0705044269561768
aF0.8867480754852295
aF1.5659726858139038
aF-2.955425262451172
aF-41.071231842041016
aF218.05999755859375
aF-1.5451912879943848
aF-1.0518583059310913
aF1.6490288972854614
aF-2.941887617111206
aF-42.313114166259766
aF209.05384826660156
aF-1.9403151273727417
aF16.388277053833008
aF-0.884498119354248
aF-1.1186457872390747
aF-40.87897491455078
aF-19.855331420898438
aF-1.1921356916427612
aF-16.264129638671875
aF-0.6658028960227966
aF-0.9659184813499451
aF-39.17088317871094
aF-27.079681396484375
aF-0.8490483164787292
aF-34.47685241699219
aF-0.7104337215423584
aF-0.9870906472206116
aF-39.307273864746094
aF-25.961578369140625
aF-0.9160350561141968
aF-30.177947998046875
aF-0.23596835136413574
aF-1.4347668886184692
aF-46.76274108886719
aF-6.400634765625
aF-1.0532947778701782
aF-26.619644165039062
aF-2.096381902694702
aF0.12740536034107208
aF0.11013560742139816
aF-0.8597679734230042
aF2.924222230911255
aF0.4986673891544342
aF1.7757285833358765
aF-3.032264471054077
aF-21.380584716796875
aF194.78375244140625
aF-2.6557183265686035
aF40.48583221435547
aF1.6865508556365967
aF-3.0247085094451904
aF-20.84625244140625
aF177.53668212890625
aF-2.35129451751709
aF20.642953872680664
aF0.39020708203315735
aF-2.913073778152466
aF-0.9652498364448547
aF4.150156021118164
aF-0.09536991268396378
aF-10.090411186218262
aF3.1415927410125732
aF3.1415927410125732
aF0.0
aF0.0
aF3.1415927410125732
aF0.0
aF-0.12349364906549454
aF1.543299674987793
aF0.9759680032730103
aF-0.026842627674341202
aF1.3527401685714722
aF-0.21625429391860962
aF2.2942302227020264
aF2.9219980239868164
aF0.16499915719032288
aF0.7392637133598328
aF2.8940541744232178
aF0.6528893113136292
aF-2.3940985202789307
aF0.2084701657295227
aF0.142343670129776
aF-0.6728808879852295
aF2.9479639530181885
aF0.7259266972541809
aF1.812552571296692
aF-3.0715105533599854
aF-14.210105895996094
aF202.43133544921875
aF-2.8642454147338867
aF49.91530227661133
aF-2.3940987586975098
aF0.20847022533416748
aF0.1423436850309372
aF-0.6728807687759399
aF2.9479639530181885
aF0.7259268164634705
aF1.6932588815689087
aF-3.058417320251465
aF-18.61031723022461
aF223.23182678222656
aF-2.5462276935577393
aF27.475027084350586
aF1.9498933553695679
aF-3.087635040283203
aF-9.809894561767578
aF181.630859375
aF-3.006835460662842
aF72.35557556152344
aF2.868756055831909
aF-2.3659794330596924
aF-10.773433685302734
aF10.986358642578125
aF-2.8737924098968506
aF39.26301574707031
aF0.08618088066577911
aF-1.656859040260315
aF-21.039146423339844
aF1.8151702880859375
aF-0.7860874533653259
aF-21.010162353515625
aF3.1415927410125732
aF3.1415927410125732
aF0.0
aF0.0
aF3.1415927410125732
aF0.0
aF-0.046425435692071915
aF1.5596424341201782
aF0.972309947013855
aF-0.010845499113202095
aF1.3351649045944214
aF-0.23344328999519348
aF0.8697909712791443
aF-2.9523980617523193
aF-0.14478962123394012
aF0.7561414241790771
aF-0.22309885919094086
aF-0.6381897330284119
aF2.4132778644561768
aF2.868260145187378
aF0.18343763053417206
aF0.6543183922767639
aF2.896576404571533
aF0.7336334586143494
aF1.6380085945129395
aF-3.038273811340332
aF-21.921733856201172
aF211.42007446289062
aF-2.1466050148010254
aF14.231470108032227
aF2.4132778644561768
aF2.868260145187378
aF0.18343766033649445
aF0.6543184518814087
aF2.896576404571533
aF0.7336335182189941
aF1.5757455825805664
aF-3.0158462524414062
aF-25.233152389526367
aF199.60830688476562
aF-1.6099276542663574
aF0.9879124760627747
aF1.6932588815689087
aF-3.058417320251465
aF-18.61031723022461
aF223.23182678222656
aF-2.5462276935577393
aF27.475027084350586
aF0.08618088066577911
aF-1.656859040260315
aF-21.039146423339844
aF1.8151702880859375
aF-0.7860874533653259
aF-21.010162353515625
aF-1.0443391799926758
aF-0.5488054752349854
aF-20.956188201904297
aF-34.272216796875
aF-0.8107945919036865
aF-19.91790771484375
aF3.1415927410125732
aF3.1415927410125732
aF0.0
aF0.0
aF3.1415927410125732
aF0.0
aF-0.046425435692071915
aF1.5596424341201782
aF0.972309947013855
aF-0.010845499113202095
aF1.3351649045944214
aF-0.23344328999519348
aF-0.548928439617157
aF-0.3836892247200012
aF-0.20611536502838135
aF-0.51056969165802
aF-0.24207191169261932
aF-0.8347664475440979
aF1.045210838317871
aF-3.0141873359680176
aF-0.11013560742139816
aF0.8597679734230042
aF-0.21737031638622284
aF-0.4986673891544342
aF1.6024938821792603
aF-3.0159223079681396
aF-24.114620208740234
aF190.8765411376953
aF-1.8166998624801636
aF6.052356243133545
aF1.045210838317871
aF-3.0141870975494385
aF-0.11013567447662354
aF0.8597679138183594
aF-0.21737045049667358
aF-0.4986673593521118
aF1.6317534446716309
aF-3.016005516052246
aF-22.99608612060547
aF182.144775390625
aF-2.0210933685302734
aF11.116800308227539
aF1.5757455825805664
aF-3.0158462524414062
aF-25.233152389526367
aF199.60830688476562
aF-1.6099276542663574
aF0.9879124760627747
aF-1.0443391799926758
aF-0.5488054752349854
aF-20.956188201904297
aF-34.272216796875
aF-0.8107945919036865
aF-19.91790771484375
aF-1.565590500831604
aF-0.43095868825912476
aF-17.128501892089844
aF-37.2535400390625
aF-1.559474229812622
aF-0.193939208984375
aF3.1415927410125732
aF3.1415927410125732
aF0.0
aF0.0
aF3.1415927410125732
aF0.0
aF-0.046425435692071915
aF1.5596424341201782
aF0.972309947013855
aF-0.010845499113202095
aF1.3351649045944214
aF-0.23344328999519348
aF-1.137392520904541
aF-0.12165232747793198
aF-0.11027572304010391
aF-0.9020064473152161
aF-0.2582944333553314
aF-0.4174010157585144
aF0.4567679166793823
aF-2.696185827255249
aF-0.2060404270887375
aF0.43158629536628723
aF-0.23044218122959137
aF-0.8782258629798889
aF1.6677932739257812
aF-3.02199125289917
aF-21.516910552978516
aF179.04638671875
aF-2.2514069080352783
aF17.421630859375
aF0.4567679166793823
aF-2.696186065673828
aF-0.20604032278060913
aF0.43158626556396484
aF-0.2304420918226242
aF-0.8782258033752441
aF1.7048369646072388
aF-3.0281968116760254
aF-20.037736892700195
aF175.94801330566406
aF-2.440282106399536
aF23.72646141052246
aF1.6317534446716309
aF-3.016005516052246
aF-22.99608612060547
aF182.144775390625
aF-2.0210933685302734
aF11.116800308227539
aF-1.565590500831604
aF-0.43095868825912476
aF-17.128501892089844
aF-37.2535400390625
aF-1.559474229812622
aF-0.193939208984375
aF-1.9539865255355835
aF-0.4393775463104248
aF-14.627357482910156
aF-31.120689392089844
aF-2.279719352722168
aF12.545265197753906
aF-1.8510009050369263
aF-0.4397830665111542
aF-15.333992004394531
aF-32.58976745605469
aF-2.1197147369384766
aF9.378547668457031
aF-2.5000290870666504
aF-1.251427412033081
aF-20.72052001953125
aF-6.85205078125
aF-1.9875657558441162
aF9.173042297363281
aF-2.1531670093536377
aF-0.092108353972435
aF-0.07691507041454315
aF-0.8326870203018188
aF-3.002242088317871
aF0.5483761429786682
aF1.7706526517868042
aF-3.0489039421081543
aF-17.452823638916016
aF187.7552947998047
aF-2.7113614082336426
aF38.03179168701172
aF1.7019091844558716
aF-3.0599825382232666
aF-13.95932388305664
aF170.66928100585938
aF-2.5864179134368896
aF22.506040573120117
aF0.7018967866897583
aF-2.903628349304199
aF-1.28010892868042
aF5.277493000030518
aF-0.20228809118270874
aF-6.241594314575195
aF3.1415927410125732
aF3.1415927410125732
aF0.0
aF0.0
aF3.1415927410125732
aF0.0
aF-0.8256649374961853
aF1.3186404705047607
aF0.9437021017074585
aF-0.2431350201368332
aF1.3374426364898682
aF-0.22430263459682465
aF2.291396379470825
aF2.7052199840545654
aF0.330707848072052
aF0.7091304659843445
aF2.6533918380737305
aF0.622708797454834
aF-2.418309211730957
aF0.011569695547223091
aF0.007657516282051802
aF-0.6618302464485168
aF3.131377696990967
aF0.7496145963668823
aF1.8073972463607788
aF3.140991449356079
aF0.12151962518692017
aF202.1484375
aF3.139099597930908
aF48.741424560546875
aF-2.418309211730957
aF0.011569695547223091
aF0.007657516747713089
aF-0.6618303060531616
aF3.131377696990967
aF0.7496146559715271
aF1.6910274028778076
aF-3.141127824783325
aF-0.1029621884226799
aF221.55014038085938
aF-3.1377458572387695
aF26.76630401611328
aF1.940015196800232
aF3.1396992206573486
aF0.34600144624710083
aF182.74673461914062
aF3.136699914932251
aF70.71654510498047
aF2.8187811374664307
aF-3.076768159866333
aF-0.8002548217773438
aF12.32763671875
aF-3.1198809146881104
aF36.85252380371094
aF0.17035943269729614
aF-2.5327508449554443
aF-2.5310707092285156
aF3.6303558349609375
aF-0.11936632543802261
aF-21.103424072265625
aF3.1415927410125732
aF3.1415927410125732
aF0.0
aF0.0
aF3.1415927410125732
aF0.0
aF-0.8040919303894043
aF1.3233298063278198
aF0.9436233639717102
aF-0.23840171098709106
aF1.3320659399032593
aF-0.22965101897716522
aF0.8170573115348816
aF3.117382049560547
aF0.017653489485383034
aF0.7290214896202087
aF0.025793548673391342
aF-0.6842631101608276
aF2.3940374851226807
aF2.6658825874328613
aF0.33055001497268677
aF0.6416324973106384
aF2.6960384845733643
aF0.6921303272247314
aF1.631848692893982
aF-3.109010696411133
aF-6.79756498336792
aF208.55520629882812
aF-2.6517398357391357
aF12.748644828796387
aF2.3940374851226807
aF2.6658825874328613
aF0.3305499851703644
aF0.641632616519928
aF2.6960384845733643
aF0.6921302676200867
aF1.5643073320388794
aF-3.072709321975708
aF-13.492167472839355
aF195.56027221679688
aF-1.477016568183899
aF-1.2690138816833496
aF1.6910274028778076
aF-3.141127824783325
aF-0.1029621884226799
aF221.55014038085938
aF-3.1377458572387695
aF26.76630401611328
aF0.17035943269729614
aF-2.5327508449554443
aF-2.5310707092285156
aF3.6303558349609375
aF-0.11936632543802261
aF-21.103424072265625
aF-1.091810703277588
aF-0.23095467686653137
aF-8.551048278808594
aF-36.3641357421875
aF-0.4251823425292969
aF-18.88470458984375
aF3.1415927410125732
aF3.1415927410125732
aF0.0
aF0.0
aF3.1415927410125732
aF0.0
aF-0.8040919303894043
aF1.3233298063278198
aF0.9436233639717102
aF-0.23840171098709106
aF1.3320659399032593
aF-0.22965101897716522
aF-0.5561336278915405
aF-0.5722758173942566
aF-0.3219612240791321
aF-0.49979692697525024
aF-0.38085946440696716
aF-0.8040795922279358
aF0.9884255528450012
aF3.0494842529296875
aF0.07691507041454315
aF0.8326870203018188
aF0.13935063779354095
aF-0.5483761429786682
aF1.599252700805664
aF-3.0641062259674072
aF-14.41118335723877
aF185.6109619140625
aF-1.9221879243850708
aF5.283231735229492
aF0.9884254932403564
aF3.0494842529296875
aF0.07691507786512375
aF0.8326869606971741
aF0.13935063779354095
aF-0.548376202583313
aF1.6380711793899536
aF-3.054542064666748
aF-15.330199241638184
aF175.66163635253906
aF-2.228252410888672
aF11.835476875305176
aF1.5643073320388794
aF-3.072709321975708
aF-13.492167472839355
aF195.56027221679688
aF-1.477016568183899
aF-1.2690138816833496
aF-1.091810703277588
aF-0.23095467686653137
aF-8.551048278808594
aF-36.3641357421875
aF-0.4251823425292969
aF-18.88470458984375
aF-1.6925333738327026
aF-0.21655337512493134
aF-8.666366577148438
aF-39.391998291015625
aF-2.0783047676086426
aF4.819297790527344
aF3.1415927410125732
aF3.1415927410125732
aF0.0
aF0.0
aF3.1415927410125732
aF0.0
aF-0.8040919303894043
aF1.3233298063278198
aF0.9436233639717102
aF-0.23840171098709106
aF1.3320659399032593
aF-0.22965101897716522
aF-1.167643666267395
aF-0.34240615367889404
aF-0.31155136227607727
aF-0.8740482330322266
aF-0.6961449384689331
aF-0.37279412150382996
aF0.44006526470184326
aF-2.883275270462036
aF-0.11185131222009659
aF0.4233253300189972
aF-0.12377503514289856
aF-0.8990466594696045
aF1.6802371740341187
aF-3.0579495429992676
aF-14.447015762329102
aF172.31903076171875
aF-2.489820957183838
aF18.93439483642578
aF0.4400652050971985
aF-2.883275032043457
aF-0.11185134202241898
aF0.4233252704143524
aF-0.12377506494522095
aF-0.8990466594696045
aF1.7236591577529907
aF-3.0614938735961914
aF-13.563831329345703
aF168.9764404296875
aF-2.6612722873687744
aF26.033313751220703
aF1.6380711793899536
aF-3.054542064666748
aF-15.330199241638184
aF175.66163635253906
aF-2.228252410888672
aF11.835476875305176
aF-1.6925333738327026
aF-0.21655337512493134
aF-8.666366577148438
aF-39.391998291015625
aF-2.0783047676086426
aF4.819297790527344
aF-2.099030017852783
aF-0.22420069575309753
aF-7.431797027587891
aF-32.59069061279297
aF-2.7690656185150146
aF19.0181884765625
aF-1.994881272315979
aF-0.22115401923656464
aF-7.7009735107421875
aF-34.25220489501953
aF-2.6795573234558105
aF15.464225769042969
aF-2.368647336959839
aF-0.8954156041145325
aF-15.496936798095703
aF-12.413818359375
aF-2.2583627700805664
aF12.726905822753906
aF-2.1543774604797363
aF-0.29577726125717163
aF-0.2464407980442047
aF-0.8087571263313293
aF-2.7092320919036865
aF0.5340213775634766
aF1.7865207195281982
aF-3.1152195930480957
aF-4.848555088043213
aF183.80213928222656
aF-3.021790027618408
aF40.27734375
aF1.7172244787216187
aF-3.126908540725708
aF-2.4731605052948
aF168.41156005859375
aF-3.0423481464385986
aF24.837974548339844
aF1.318109393119812
aF-2.827348470687866
aF-2.0717318058013916
aF6.37429141998291
aF-0.8994507789611816
aF-1.6458803415298462
aF3.1415927410125732
aF3.1415927410125732
aF0.0
aF0.0
aF3.1415927410125732
aF0.0
aF-1.1867860555648804
aF1.1640764474868774
aF0.9069098234176636
aF-0.39063960313796997
aF1.3984745740890503
aF-0.15784582495689392
aF2.3255081176757812
aF2.605287551879883
aF0.3973615765571594
aF0.6684883832931519
aF2.577928304672241
aF0.628670871257782
aF-2.4481735229492188
aF-0.21780738234519958
aF-0.14006562530994415
aF-0.6328696608543396
aF-2.959688186645508
aF0.7614838480949402
aF1.8102957010269165
aF3.07110595703125
aF13.972397804260254
aF197.89901733398438
aF2.8601298332214355
aF48.32419204711914
aF-2.4481735229492188
aF-0.21780739724636078
aF-0.14006562530994415
aF-0.6328696012496948
aF-2.959688186645508
aF0.761483907699585
aF1.7018561363220215
aF3.0594732761383057
aF17.65894889831543
aF214.55624389648438
aF2.583430290222168
aF28.28180694580078
aF1.9315048456192017
aF3.0849013328552246
aF10.285846710205078
aF181.2417755126953
aF2.9922611713409424
aF68.3665771484375
aF2.8337888717651367
aF2.4511959552764893
aF9.44869613647461
aF11.439056396484375
aF2.8847975730895996
aF35.982330322265625
aF0.22748525440692902
aF1.7961643934249878
aF15.834915161132812
aF3.6303558349609375
aF0.7902371287345886
aF-15.682403564453125
aF3.1415927410125732
aF3.1415927410125732
aF0.0
aF0.0
aF3.1415927410125732
aF0.0
aF-1.1675512790679932
aF1.1695890426635742
aF0.9080730080604553
aF-0.3852199912071228
aF1.3917533159255981
aF-0.1643439382314682
aF0.8049654960632324
aF2.8964412212371826
aF0.1774713695049286
aF0.7093645930290222
aF0.25452834367752075
aF-0.6821332573890686
aF2.449765920639038
aF2.5703775882720947
aF0.37935110926628113
aF0.5902604460716248
aF2.6523566246032715
aF0.7125204205513
aF1.6439193487167358
aF3.089852809906006
aF10.537184715270996
aF203.4749755859375
aF2.526221990585327
aF14.905275344848633
aF2.449765920639038
aF2.5703773498535156
aF0.3793511688709259
aF0.5902603268623352
aF2.6523563861846924
aF0.7125204801559448
aF1.5787420272827148
aF3.123842239379883
aF3.4154205322265625
aF192.39369201660156
aF1.9916527271270752
aF1.5287429094314575
aF1.7018561363220215
aF3.0594732761383057
aF17.65894889831543
aF214.55624389648438
aF2.583430290222168
aF28.28180694580078
aF0.22748525440692902
aF1.7961643934249878
aF15.834915161132812
aF3.6303558349609375
aF0.7902371287345886
aF-15.682403564453125
aF-1.133373498916626
aF0.2436264008283615
aF8.237285614013672
aF-33.13953399658203
aF0.4885542392730713
aF-15.497238159179688
aF3.1415927410125732
aF3.1415927410125732
aF0.0
aF0.0
aF3.1415927410125732
aF0.0
aF-1.1675512790679932
aF1.1695890426635742
aF0.9080730080604553
aF-0.3852199912071228
aF1.3917533159255981
aF-0.1643439382314682
aF-0.49193814396858215
aF-0.6511011719703674
aF-0.3386300206184387
aF-0.44442933797836304
aF-0.3876499831676483
aF-0.8293444514274597
aF0.9872152209281921
aF2.845815420150757
aF0.2464407980442047
aF0.8087571263313293
aF0.43236052989959717
aF-0.5340213775634766
aF1.6130963563919067
aF3.138603925704956
aF0.5468820333480835
aF182.9798583984375
aF3.0710957050323486
aF7.744681358337402
aF0.987215518951416
aF2.845815658569336
aF0.24644067883491516
aF0.8087573647499084
aF0.4323605000972748
aF-0.5340211391448975
aF1.6510576009750366
aF-3.1282172203063965
aF-2.3216564655303955
aF173.56602478027344
aF-2.9768004417419434
aF13.960619926452637
aF1.5787420272827148
aF3.123842239379883
aF3.4154205322265625
aF192.39369201660156
aF1.9916527271270752
aF1.5287429094314575
aF-1.133373498916626
aF0.2436264008283615
aF8.237285614013672
aF-33.13953399658203
aF0.4885542392730713
aF-15.497238159179688
aF-1.7630980014801025
aF0.11389608681201935
aF4.200052261352539
aF-36.716583251953125
aF2.6104135513305664
aF7.1490020751953125
aF3.1415927410125732
aF3.1415927410125732
aF0.0
aF0.0
aF3.1415927410125732
aF0.0
aF-1.1675512790679932
aF1.1695890426635742
aF0.9080730080604553
aF-0.3852199912071228
aF1.3917533159255981
aF-0.1643439382314682
aF-1.1153947114944458
aF-0.47387436032295227
aF-0.41834205389022827
aF-0.8157207369804382
aF-0.8084494471549988
aF-0.3994866907596588
aF0.44626566767692566
aF3.0956671237945557
aF0.019831500947475433
aF0.43151506781578064
aF0.021985337138175964
aF-0.9018877148628235
aF1.6938130855560303
aF-3.1270363330841064
aF-2.4773471355438232
aF170.1783447265625
aF-3.024393320083618
aF21.041044235229492
aF0.446265310049057
aF3.0956671237945557
aF0.01983151026070118
aF0.431514710187912
aF0.02198534458875656
aF-0.901887834072113
aF1.7378287315368652
aF-3.125807523727417
aF-2.633037805557251
aF166.79066467285156
aF-3.048233985900879
aF28.121469497680664
aF1.6510576009750366
aF-3.1282172203063965
aF-2.3216564655303955
aF173.56602478027344
aF-2.9768004417419434
aF13.960619926452637
aF-1.7630980014801025
aF0.11389608681201935
aF4.200052261352539
aF-36.716583251953125
aF2.6104135513305664
aF7.1490020751953125
aF-2.1865100860595703
aF0.11186934262514114
aF3.4131717681884766
aF-30.382957458496094
aF2.9841158390045166
aF21.494667053222656
aF-2.0888147354125977
aF0.11500691622495651
aF3.6738815307617188
aF-31.803909301757812
aF2.941617250442505
aF18.126113891601562
aF-2.55983829498291
aF-0.24721401929855347
aF-2.749591827392578
aF-10.894805908203125
aF-2.977109670639038
aF16.56554412841797
aF-2.2099180221557617
aF-0.6468696594238281
aF-0.5183890461921692
aF-0.6863564252853394
aF-2.348121404647827
aF0.510085940361023
aF1.7915862798690796
aF3.09479022026062
aF8.840126037597656
aF188.74415588378906
aF2.9358713626861572
aF42.363433837890625
aF1.7099279165267944
aF3.0960049629211426
aF7.966187953948975
aF174.6228485107422
aF2.8266661167144775
aF24.45354652404785
aF1.4178951978683472
aF-2.7125446796417236
aF-3.5239696502685547
aF7.703181743621826
aF-1.2458735704421997
aF-1.1870907545089722
aF3.1415927410125732
aF3.1415927410125732
aF0.0
aF0.0
aF3.1415927410125732
aF0.0
aF-1.278612494468689
aF0.9585477709770203
aF0.806397557258606
aF-0.5663096904754639
aF1.3626188039779663
aF-0.17034177482128143
aF2.4558560848236084
aF2.3763670921325684
aF0.5196358561515808
aF0.5410353541374207
aF2.475550889968872
aF0.6612558960914612
aF-2.43648624420166
aF-0.42622843384742737
aF-0.2823146879673004
aF-0.6217508316040039
aF-2.7728357315063477
aF0.7305644154548645
aF1.8092060089111328
aF3.00663423538208
aF25.713119506835938
aF189.36798095703125
aF2.6320881843566895
aF46.022438049316406
aF-2.43648624420166
aF-0.42622846364974976
aF-0.2823146879673004
aF-0.6217507719993591
aF-2.7728357315063477
aF0.7305643558502197
aF1.7079275846481323
aF2.983562469482422
aF32.591522216796875
aF204.51651000976562
aF2.2844796180725098
aF28.222742080688477
aF1.9219459295272827
aF3.0339016914367676
aF18.834716796875
aF174.21945190429688
aF2.854625701904297
aF63.82213592529297
aF3.0064995288848877
aF1.8302091360092163
aF19.43524169921875
aF5.1579742431640625
aF2.6682724952697754
aF37.948341369628906
aF0.0
aF1.5707963705062866
aF32.071983337402344
aF0.0
aF1.3021427392959595
aF-8.8297119140625
aF3.1415927410125732
aF3.1415927410125732
aF0.0
aF0.0
aF3.1415927410125732
aF0.0
aF-1.446104884147644
aF0.8763381838798523
aF0.7659403681755066
aF-0.6379201412200928
aF1.4667811393737793
aF-0.07995802909135818
aF0.7391304969787598
aF2.518669843673706
aF0.4355822801589966
aF0.606381356716156
aF0.5797111988067627
aF-0.6652591824531555
aF2.572626829147339
aF2.3581502437591553
aF0.4728672504425049
aF0.4747205376625061
aF2.5744006633758545
aF0.7423186302185059
aF1.6576511859893799
aF3.0128369331359863
aF25.56599998474121
aF197.46343994140625
aF2.1628472805023193
aF17.193904876708984
aF2.5726265907287598
aF2.3581507205963135
aF0.4728671610355377
aF0.4747208058834076
aF2.5744009017944336
aF0.7423185110092163
aF1.6031627655029297
aF3.044527530670166
aF18.540477752685547
aF190.41038513183594
aF1.8918139934539795
aF6.165066242218018
aF1.7079275846481323
aF2.983562469482422
aF32.591522216796875
aF204.51651000976562
aF2.2844796180725098
aF28.222742080688477
aF0.0
aF1.5707963705062866
aF32.071983337402344
aF0.0
aF1.3021427392959595
aF-8.8297119140625
aF-1.1755390167236328
aF0.6833823919296265
aF22.890275955200195
aF-28.111373901367188
aF1.097296118736267
aF-11.72845458984375
aF3.1415927410125732
aF3.1415927410125732
aF0.0
aF0.0
aF3.1415927410125732
aF0.0
aF-1.446104884147644
aF0.8763381838798523
aF0.7659403681755066
aF-0.6379201412200928
aF1.4667811393737793
aF-0.07995802909135818
aF-0.3872189521789551
aF-0.8279042840003967
aF-0.3802737891674042
aF-0.3492460250854492
aF-0.4178850054740906
aF-0.85639888048172
aF0.9316747188568115
aF2.494723081588745
aF0.5183890461921692
aF0.6863564252853394
aF0.7934712171554565
aF-0.510085940361023
aF1.6267917156219482
aF3.0644593238830566
aF14.280227661132812
aF184.76974487304688
aF2.198284149169922
aF10.357078552246094
aF0.9316742420196533
aF2.494722366333008
aF0.5183893442153931
aF0.6863560080528259
aF0.7934712767601013
aF-0.510086178779602
aF1.6518397331237793
aF3.0857136249542236
aF10.019978523254395
aF179.1291046142578
aF2.538490056991577
aF14.549090385437012
aF1.6031627655029297
aF3.044527530670166
aF18.540477752685547
aF190.41038513183594
aF1.8918139934539795
aF6.165066242218018
aF-1.1755390167236328
aF0.6833823919296265
aF22.890275955200195
aF-28.111373901367188
aF1.097296118736267
aF-11.72845458984375
aF-1.6590458154678345
aF0.4672173261642456
aF15.379796981811523
aF-30.487030029296875
aF1.7444210052490234
aF2.6974716186523438
aF3.1415927410125732
aF3.1415927410125732
aF0.0
aF0.0
aF3.1415927410125732
aF0.0
aF-1.446104884147644
aF0.8763381838798523
aF0.7659403681755066
aF-0.6379201412200928
aF1.4667811393737793
aF-0.07995802909135818
aF-0.9923838376998901
aF-0.7333764433860779
aF-0.6022709012031555
aF-0.6684349179267883
aF-0.943731963634491
aF-0.4364224076271057
aF0.40333712100982666
aF2.6098742485046387
aF0.22495590150356293
aF0.38242992758750916
aF0.24593454599380493
aF-0.8961820006370544
aF1.6895357370376587
aF3.0940511226654053
aF8.390716552734375
aF176.35931396484375
aF2.7621188163757324
aF21.039764404296875
aF0.4033373296260834
aF2.6098744869232178
aF0.22495584189891815
aF0.38243013620376587
aF0.24593450129032135
aF-0.8961819410324097
aF1.7280813455581665
aF3.102661609649658
aF6.7614545822143555
aF173.58953857421875
aF2.9007601737976074
aF27.530439376831055
aF1.6518397331237793
aF3.0857136249542236
aF10.019978523254395
aF179.1291046142578
aF2.538490056991577
aF14.549090385437012
aF-1.6590458154678345
aF0.4672173261642456
aF15.379796981811523
aF-30.487030029296875
aF1.7444210052490234
aF2.6974716186523438
aF-2.1288576126098633
aF0.43858373165130615
aF11.634819030761719
aF-24.80499267578125
aF2.4972078800201416
aF15.484565734863281
aF-2.0197253227233887
aF0.4595670700073242
aF12.990715026855469
aF-26.2486572265625
aF2.342705249786377
aF12.644889831542969
aF-2.875234603881836
aF1.2076568603515625
aF9.686620712280273
aF-3.6808319091796875
aF2.5188751220703125
aF13.490745544433594
a.