(lp0
F3.1415927410125732
aF3.1415927410125732
aF0.0
aF0.0
aF3.1415927410125732
aF0.0
aF-0.037616804242134094
aF1.561521053314209
aF0.9709058403968811
aF-0.00900565180927515
aF1.329149603843689
aF-0.23929208517074585
aF2.2195441722869873
aF2.9479007720947266
aF0.15442626178264618
aF0.7872822880744934
aF2.888446569442749
aF0.5969414710998535
aF-2.4637439250946045
aF0.28856220841407776
aF0.18301457166671753
aF-0.6165269613265991
aF2.9069981575012207
aF0.7657676935195923
aF2.5782132148742676
aF2.8725173473358154
aF27.505434036254883
aF99.74310302734375
aF2.969132661819458
aF157.90444946289062
aF0.6778488159179688
aF-2.8530304431915283
aF-0.18301457166671753
aF0.6165269613265991
aF-0.2345944046974182
aF-0.7657676935195923
aF1.9672220945358276
aF3.1018781661987305
aF6.742609977722168
aF169.68748474121094
aF3.0469484329223633
aF71.02886962890625
aF3.1415927410125732
aF3.1415927410125732
aF0.0
aF0.0
aF3.1415927410125732
aF0.0
aF-0.5600472092628479
aF1.4822430610656738
aF0.9863191843032837
aF-0.08757083117961884
aF1.4301313161849976
aF-0.1396629810333252
aF2.518080949783325
aF2.8633389472961426
aF0.16452370584011078
aF0.5759331583976746
aF2.938955783843994
aF0.8007702231407166
aF-2.1925878524780273
aF0.012686962261795998
aF0.010312426835298538
aF-0.812792956829071
aF3.123889684677124
aF0.582461416721344
aF0.47660762071609497
aF0.9490047097206116
aF-3.128905773162842
aF-0.010312426835298538
aF0.812792956829071
aF-0.017703060060739517
aF-0.582461416721344
aF1.0
aF-0.623511791229248
aF-0.2782537043094635
aF-0.16452370584011078
aF-0.5759331583976746
aF-0.2026369571685791
aF-0.8007702231407166
aF1.775572419166565
aF-3.1384670734405518
aF-0.6408833861351013
aF205.0418243408203
aF-3.126544237136841
aF42.58456802368164
aF-3.0236716270446777
aF1.4212594032287598
aF3.289353609085083
aF-0.4955790936946869
aF2.4752392768859863
aF4.183140754699707
aF0.21683597564697266
aF1.612330675125122
aF-3.125654458999634
aF-3.110266923904419
aF195.12939453125
aF-2.775350332260132
aF8.109231948852539
aF32.733673095703125
aF1.8566795587539673
aF-3.1375577449798584
aF-0.8673568367958069
aF214.96554565429688
aF-3.127866506576538
aF63.18586349487305
aF1.9672220945358276
aF3.1018781661987305
aF6.742609977722168
aF169.68748474121094
aF3.0469484329223633
aF71.02886962890625
aF3.061762571334839
aF2.0863897800445557
aF6.405872344970703
aF3.63037109375
aF3.001357316970825
aF45.379615783691406
aF-1.2276228666305542
aF0.09600217640399933
aF3.2473678588867188
aF-33.72200012207031
aF0.26325297355651855
aF-12.04925537109375
aF0.7034423351287842
aF-2.7778208255767822
aF-0.2391202747821808
aF0.6280816793441772
aF-0.31234845519065857
aF-0.7404963970184326
aF1.6423780918121338
aF-2.9463648796081543
aF-44.24440383911133
aF223.74302673339844
aF-1.9186577796936035
aF16.043325424194336
aF1.6194899082183838
aF-2.9442174434661865
aF-43.75136184692383
aF218.77984619140625
aF-1.809823751449585
aF10.661601066589355
aF3.063728094100952
aF1.7985882759094238
aF0.963063657283783
aF0.223253071308136
aF2.8169312477111816
aF2.861400842666626
aF3.1415927410125732
aF3.1415927410125732
aF0.0
aF0.0
aF3.1415927410125732
aF0.0
aF2.2786028385162354
aF2.4377224445343018
aF0.542034387588501
aF0.6384941935539246
aF2.3601810932159424
aF0.5463734269142151
aF3.126063585281372
aF-1.5859274864196777
aF-0.7161818742752075
aF0.010837515816092491
aF-2.3432164192199707
aF0.69782954454422
aF-2.1125733852386475
aF0.5190439820289612
aF0.43963879346847534
aF-0.7695503234863281
aF2.3822338581085205
aF0.4631522595882416
aF1.96743643283844
aF-3.0303127765655518
aF-18.35031509399414
aF164.22096252441406
aF-2.880875825881958
aF68.78204345703125
aF3.1415927410125732
aF3.1415927410125732
aF0.0
aF0.0
aF3.1415927410125732
aF0.0
aF1.96743643283844
aF-3.0303127765655518
aF-18.35031509399414
aF164.22096252441406
aF-2.880875825881958
aF68.78204345703125
aF1.96743643283844
aF-3.0303127765655518
aF-18.35031509399414
aF164.22096252441406
aF-2.880875825881958
aF68.78204345703125
aF-3.029219388961792
aF-1.2699487209320068
aF-17.551250457763672
aF-5.4455413818359375
aF-2.792750835418701
aF48.25529479980469
aF-3.029219388961792
aF-1.2699487209320068
aF-17.551250457763672
aF-5.4455413818359375
aF-2.792750835418701
aF48.25529479980469
aF3.1415927410125732
aF3.1415927410125732
aF0.0
aF0.0
aF3.1415927410125732
aF0.0
aF2.141150951385498
aF2.5721633434295654
aF0.47435250878334045
aF0.7409863471984863
aF2.357213020324707
aF0.47531983256340027
aF3.0483996868133545
aF-1.6520287990570068
aF-0.752633810043335
aF0.06127314642071724
aF-2.2873852252960205
aF0.6555821299552917
aF-2.2910029888153076
aF0.5991417169570923
aF0.45665305852890015
aF-0.6687188148498535
aF2.4802448749542236
aF0.5867564678192139
aF1.8776270151138306
aF-2.986172676086426
aF-27.928363800048828
aF178.24697875976562
aF-2.6823346614837646
aF56.47514724731445
aF-2.2910032272338867
aF0.5991418361663818
aF0.4566531181335449
aF-0.6687187552452087
aF2.4802448749542236
aF0.5867565274238586
aF1.7965953350067139
aF-2.9489433765411377
aF-37.506412506103516
aF192.27297973632812
aF-2.437579870223999
aF44.168251037597656
aF1.96743643283844
aF-3.0303127765655518
aF-18.35031509399414
aF164.22096252441406
aF-2.880875825881958
aF68.78204345703125
aF-3.029219388961792
aF-1.2699487209320068
aF-17.551250457763672
aF-5.4455413818359375
aF-2.792750835418701
aF48.25529479980469
aF-2.3029160499572754
aF-1.2407022714614868
aF-35.46418380737305
aF-12.151092529296875
aF-1.8695179224014282
aF10.920700073242188
aF3.1415927410125732
aF3.1415927410125732
aF0.0
aF0.0
aF3.1415927410125732
aF0.0
aF2.141150951385498
aF2.5721633434295654
aF0.47435250878334045
aF0.7409863471984863
aF2.357213020324707
aF0.47531983256340027
aF2.6778788566589355
aF-1.8442113399505615
aF-0.8472374081611633
aF0.2375977337360382
aF-2.081881046295166
aF0.4751169681549072
aF-2.438150405883789
aF0.36377185583114624
aF0.2391202747821808
aF-0.6280816793441772
aF2.8292441368103027
aF0.7404963970184326
aF1.73601496219635
aF-2.940960645675659
aF-40.93212890625
aF201.27108764648438
aF-2.257545232772827
aF33.55964660644531
aF-2.43815016746521
aF0.3637717068195343
aF0.23912020027637482
aF-0.6280817985534668
aF2.829244375228882
aF0.7404963374137878
aF1.6795166730880737
aF-2.9336836338043213
aF-44.35784912109375
aF210.2692108154297
aF-2.048271894454956
aF22.951040267944336
aF1.7965953350067139
aF-2.9489433765411377
aF-37.506412506103516
aF192.27297973632812
aF-2.437579870223999
aF44.168251037597656
aF-2.3029160499572754
aF-1.2407022714614868
aF-35.46418380737305
aF-12.151092529296875
aF-1.8695179224014282
aF10.920700073242188
aF-0.8895835876464844
aF-1.1172592639923096
aF-40.83457946777344
aF-19.903793334960938
aF-1.1944862604141235
aF-16.135391235351562
aF3.1415927410125732
aF3.1415927410125732
aF0.0
aF0.0
aF3.1415927410125732
aF0.0
aF2.141150951385498
aF2.5721633434295654
aF0.47435250878334045
aF0.7409863471984863
aF2.357213020324707
aF0.47531983256340027
aF2.0759308338165283
aF-2.0122368335723877
aF-0.879912793636322
aF0.4157952666282654
aF-1.8263908624649048
aF0.22992989420890808
aF-2.585932970046997
aF-0.051652129739522934
aF-0.02726081945002079
aF-0.5273078083992004
aF-3.1095032691955566
aF0.8492369055747986
aF1.638455867767334
aF-2.9397432804107666
aF-44.08977508544922
aF215.45462036132812
aF-1.8905707597732544
aF14.599848747253418
aF-2.585932970046997
aF-0.05165206640958786
aF-0.027260778471827507
aF-0.5273076891899109
aF-3.1095032691955566
aF0.8492369055747986
aF1.5991092920303345
aF-2.9455323219299316
aF-43.82169723510742
aF220.64004516601562
aF-1.7124342918395996
aF6.248656749725342
aF1.6795166730880737
aF-2.9336836338043213
aF-44.35784912109375
aF210.2692108154297
aF-2.048271894454956
aF22.951040267944336
aF-0.8895835876464844
aF-1.1172592639923096
aF-40.83457946777344
aF-19.903793334960938
aF-1.1944862604141235
aF-16.135391235351562
aF-0.6709471940994263
aF-0.960060179233551
aF-38.88123321533203
aF-27.217453002929688
aF-0.8480960726737976
aF-34.28767395019531
aF-0.6863359212875366
aF-1.0084939002990723
aF-39.265289306640625
aF-24.74347686767578
aF-0.9150916337966919
aF-30.204635620117188
aF-0.5162330865859985
aF-1.1635991334915161
aF-40.937843322753906
aF-17.6566162109375
aF-0.9209825396537781
aF-31.109100341796875
aF-2.0047030448913574
aF0.19330568611621857
aF0.17487308382987976
aF-0.8933491706848145
aF2.741875648498535
aF0.4139404296875
aF1.7686280012130737
aF-3.031790256500244
aF-21.29258918762207
aF193.13755798339844
aF-2.638763666152954
aF38.71510696411133
aF1.7037807703018188
aF-3.025995969772339
aF-20.881389617919922
aF179.83480834960938
aF-2.4267473220825195
aF24.057207107543945
aF1.391509771347046
aF-2.9201536178588867
aF-0.8255172371864319
aF3.6668338775634766
aF-0.8930078744888306
aF-0.6645497679710388
aF3.1415927410125732
aF3.1415927410125732
aF0.0
aF0.0
aF3.1415927410125732
aF0.0
aF0.20980408787727356
aF1.622411847114563
aF0.9705856442451477
aF0.050141848623752594
aF1.3327821493148804
aF-0.23547667264938354
aF2.370194435119629
aF2.9462733268737793
aF0.13662953674793243
aF0.6906007528305054
aF2.9515364170074463
aF0.7102133631706238
aF-2.3142967224121094
aF0.2681347727775574
aF0.1982317715883255
aF-0.7214959263801575
aF2.85124135017395
aF0.6634363532066345
aF1.8368864059448242
aF-3.0668327808380127
aF-15.182371139526367
aF202.70327758789062
aF-2.873405933380127
aF55.24742889404297
aF-2.3142967224121094
aF0.2681347727775574
aF0.1982317715883255
aF-0.7214959263801575
aF2.85124135017395
aF0.6634363532066345
aF1.7239774465560913
aF-3.0471649169921875
aF-21.31022834777832
aF225.00657653808594
aF-2.5913493633270264
aF34.738895416259766
aF1.9683676958084106
aF-3.0914433002471924
aF-9.054513931274414
aF180.39996337890625
aF-3.022634744644165
aF75.75596618652344
aF2.868756055831909
aF-2.3659794330596924
aF-10.773433685302734
aF10.986358642578125
aF-2.8737924098968506
aF39.263031005859375
aF0.08618166297674179
aF-1.6568597555160522
aF-21.039154052734375
aF1.815185546875
aF-0.7860879898071289
aF-21.010147094726562
aF3.1415927410125732
aF3.1415927410125732
aF0.0
aF0.0
aF3.1415927410125732
aF0.0
aF0.2716701030731201
aF1.6441600322723389
aF0.9644787311553955
aF0.07088500261306763
aF1.3128308057785034
aF-0.25447216629981995
aF0.9551957845687866
aF-2.8871219158172607
aF-0.20772810280323029
aF0.7986177802085876
aF-0.3524048328399658
aF-0.5648528337478638
aF2.4908597469329834
aF2.8750431537628174
aF0.16318638622760773
aF0.5976495742797852
aF2.936624526977539
aF0.7849746346473694
aF1.6665197610855103
aF-3.028841972351074
aF-24.25606918334961
aF214.21780395507812
aF-2.274113178253174
aF20.568527221679688
aF2.4908597469329834
aF2.8750431537628174
aF0.16318640112876892
aF0.5976495146751404
aF2.936624526977539
aF0.7849746942520142
aF1.602237582206726
aF-3.008664131164551
aF-27.20191192626953
aF203.4290313720703
aF-1.8018072843551636
aF6.398160457611084
aF1.7239774465560913
aF-3.0471649169921875
aF-21.31022834777832
aF225.00657653808594
aF-2.5913493633270264
aF34.738895416259766
aF0.08618166297674179
aF-1.6568597555160522
aF-21.039154052734375
aF1.815185546875
aF-0.7860879898071289
aF-21.010147094726562
aF-1.0417207479476929
aF-0.5497425198554993
aF-21.002517700195312
aF-34.275779724121094
aF-0.8088400363922119
aF-20.04022216796875
aF3.1415927410125732
aF3.1415927410125732
aF0.0
aF0.0
aF3.1415927410125732
aF0.0
aF0.2716701030731201
aF1.6441600322723389
aF0.9644787311553955
aF0.07088500261306763
aF1.3128308057785034
aF-0.25447216629981995
aF-0.46978959441185
aF-0.4196796715259552
aF-0.1979903280735016
aF-0.44373705983161926
aF-0.22277061641216278
aF-0.8740121722221375
aF1.1368895769119263
aF-2.948287010192871
aF-0.17487308382987976
aF0.8933491706848145
aF-0.39971688389778137
aF-0.4139404296875
aF1.6252923011779785
aF-3.011510133743286
aF-25.425907135009766
aF194.35621643066406
aF-1.9658552408218384
aF10.602121353149414
aF1.1368896961212158
aF-2.948287010192871
aF-0.17487312853336334
aF0.8933491110801697
aF-0.3997170329093933
aF-0.4139403700828552
aF1.650537371635437
aF-3.0146374702453613
aF-23.649904251098633
aF185.2834014892578
aF-2.1301522254943848
aF14.806081771850586
aF1.602237582206726
aF-3.008664131164551
aF-27.20191192626953
aF203.4290313720703
aF-1.8018072843551636
aF6.398160457611084
aF-1.0417207479476929
aF-0.5497425198554993
aF-21.002517700195312
aF-34.275779724121094
aF-0.8088400363922119
aF-20.04022216796875
aF-1.5612361431121826
aF-0.4284016489982605
aF-17.0843505859375
aF-37.40924835205078
aF-1.5498650074005127
aF-0.3576507568359375
aF3.1415927410125732
aF3.1415927410125732
aF0.0
aF0.0
aF3.1415927410125732
aF0.0
aF0.2716701030731201
aF1.6441600322723389
aF0.9644787311553955
aF0.07088500261306763
aF1.3128308057785034
aF-0.25447216629981995
aF-1.0488530397415161
aF-0.07809390127658844
aF-0.06767828017473221
aF-0.8648644685745239
aF-0.13522759079933167
aF-0.4974224865436554
aF0.5398590564727783
aF-2.6669697761535645
aF-0.2553437054157257
aF0.4969756603240967
aF-0.2986755073070526
aF-0.8293460011482239
aF1.6845476627349854
aF-3.022104501724243
aF-21.8167781829834
aF181.715576171875
aF-2.3313791751861572
aF20.76000213623047
aF0.5398593544960022
aF-2.6669702529907227
aF-0.25534361600875854
aF0.4969758987426758
aF-0.2986755073070526
aF-0.8293457627296448
aF1.7196409702301025
aF-3.0298850536346436
aF-19.983652114868164
aF178.14776611328125
aF-2.499333381652832
aF26.71392059326172
aF1.650537371635437
aF-3.0146374702453613
aF-23.649904251098633
aF185.2834014892578
aF-2.1301522254943848
aF14.806081771850586
aF-1.5612361431121826
aF-0.4284016489982605
aF-17.0843505859375
aF-37.40924835205078
aF-1.5498650074005127
aF-0.3576507568359375
aF-1.947551965713501
aF-0.43301865458488464
aF-14.506465911865234
aF-31.380279541015625
aF-2.278693914413452
aF12.415786743164062
aF-1.85332453250885
aF-0.4345194399356842
aF-15.16861343383789
aF-32.68376159667969
aF-2.129751205444336
aF9.487884521484375
aF-2.0658535957336426
aF-0.9528934955596924
aF-18.786285400390625
aF-13.352310180664062
aF-1.9372022151947021
aF7.2089385986328125
aF-2.0664684772491455
aF-0.023913130164146423
aF-0.021034520119428635
aF-0.8794545531272888
aF-3.097386598587036
aF0.4755178689956665
aF1.7653355598449707
aF-3.0501742362976074
aF-17.072975158691406
aF186.23573303222656
aF-2.7061073780059814
aF36.69422149658203
aF1.7160817384719849
aF-3.061817169189453
aF-13.855753898620605
aF173.31576538085938
aF-2.641528606414795
aF25.35892105102539
aF2.316105842590332
aF-2.281947612762451
aF-1.601783275604248
aF1.3799885511398315
aF-2.2425334453582764
aF1.2735544443130493
aF3.1415927410125732
aF3.1415927410125732
aF0.0
aF0.0
aF3.1415927410125732
aF0.0
aF-0.5667214393615723
aF1.3976835012435913
aF0.950835645198822
aF-0.16626609861850739
aF1.3026256561279297
aF-0.26127979159355164
aF2.3572661876678467
aF2.7185370922088623
aF0.303070604801178
aF0.6731277108192444
aF2.719338893890381
aF0.6745719313621521
aF-2.3348166942596436
aF0.08819254487752914
aF0.06371623277664185
aF-0.720593273639679
aF3.049567699432373
aF0.6904242038726807
aF1.8293676376342773
aF-3.1372175216674805
aF-0.8898196220397949
aF203.3826904296875
aF-3.1250526905059814
aF53.79316711425781
aF-2.3348166942596436
aF0.08819255232810974
aF0.06371623277664185
aF-0.7205932140350342
aF3.049567699432373
aF0.6904243230819702
aF1.7191511392593384
aF-3.129310131072998
aF-2.7576751708984375
aF224.5070343017578
aF-3.05958890914917
aF33.553226470947266
aF1.9566349983215332
aF3.1362264156341553
aF0.9780359268188477
aF182.25833129882812
aF3.128382682800293
aF74.03311157226562
aF2.8187811374664307
aF-3.076767921447754
aF-0.8002567291259766
aF12.32763671875
aF-3.1198809146881104
aF36.85252380371094
aF0.17035943269729614
aF-2.532750368118286
aF-2.5310726165771484
aF3.6303558349609375
aF-0.11936640739440918
aF-21.103424072265625
aF3.1415927410125732
aF3.1415927410125732
aF0.0
aF0.0
aF3.1415927410125732
aF0.0
aF-0.5602177977561951
aF1.3991761207580566
aF0.9507023096084595
aF-0.16478067636489868
aF1.3011994361877441
aF-0.2627021074295044
aF0.901355504989624
aF-3.0962812900543213
aF-0.035533685237169266
aF0.7836735844612122
aF-0.05723542720079422
aF-0.6201556921005249
aF2.4606380462646484
aF2.6665194034576416
aF0.3080623745918274
aF0.5989182591438293
aF2.746722459793091
aF0.7391850352287292
aF1.6580719947814941
aF-3.099255323410034
aF-8.996837615966797
aF212.377197265625
aF-2.690701484680176
aF18.58257293701172
aF2.4606380462646484
aF2.6665196418762207
aF0.3080624043941498
aF0.5989183783531189
aF2.746722459793091
aF0.7391850352287292
aF1.5888316631317139
aF-3.065653085708618
aF-15.236000061035156
aF200.24734497070312
aF-1.8035640716552734
aF3.6119184494018555
aF1.7191511392593384
aF-3.129310131072998
aF-2.7576751708984375
aF224.5070343017578
aF-3.05958890914917
aF33.553226470947266
aF0.17035943269729614
aF-2.532750368118286
aF-2.5310726165771484
aF3.6303558349609375
aF-0.11936640739440918
aF-21.103424072265625
aF-1.0903924703598022
aF-0.23043256998062134
aF-8.532550811767578
aF-36.37068176269531
aF-0.42300358414649963
aF-18.953643798828125
aF3.1415927410125732
aF3.1415927410125732
aF0.0
aF0.0
aF3.1415927410125732
aF0.0
aF-0.5602177977561951
aF1.3991761207580566
aF0.9507023096084595
aF-0.16478067636489868
aF1.3011994361877441
aF-0.2627021074295044
aF-0.48882701992988586
aF-0.6059088706970215
aF-0.30939072370529175
aF-0.4465501308441162
aF-0.3530712425708771
aF-0.8395655751228333
aF1.0751240253448486
aF3.1176795959472656
aF0.021034520119428635
aF0.8794545531272888
aF0.044206153601408005
aF-0.4755178689956665
aF1.619738221168518
aF-3.0601489543914795
aF-15.487329483032227
aF189.73922729492188
aF-2.111273765563965
aF9.293619155883789
aF1.0751240253448486
aF3.1176795959472656
aF0.021034520119428635
aF0.8794545531272888
aF0.044206153601408005
aF-0.4755178987979889
aF1.6541558504104614
aF-3.0540051460266113
aF-15.738659858703613
aF179.23110961914062
aF-2.3313465118408203
aF14.975320816040039
aF1.5888316631317139
aF-3.065653085708618
aF-15.236000061035156
aF200.24734497070312
aF-1.8035640716552734
aF3.6119184494018555
aF-1.0903924703598022
aF-0.23043256998062134
aF-8.532550811767578
aF-36.37068176269531
aF-0.42300358414649963
aF-18.953643798828125
aF-1.6903955936431885
aF-0.2188272923231125
aF-8.774971008300781
aF-39.457862854003906
aF-2.066218614578247
aF4.74176025390625
aF3.1415927410125732
aF3.1415927410125732
aF0.0
aF0.0
aF3.1415927410125732
aF0.0
aF-0.5602177977561951
aF1.3991761207580566
aF0.9507023096084595
aF-0.16478067636489868
aF1.3011994361877441
aF-0.2627021074295044
aF-1.0933189392089844
aF-0.3063410222530365
aF-0.27045300602912903
aF-0.8550581932067871
aF-0.5486951470375061
aF-0.4424145519733429
aF0.5206126570701599
aF-2.8422646522521973
aF-0.15172423422336578
aF0.49165311455726624
aF-0.17513108253479004
aF-0.8574712872505188
aF1.6941816806793213
aF-3.0588579177856445
aF-14.540637969970703
aF175.3489990234375
aF-2.5522117614746094
aF21.74595832824707
aF0.5206125974655151
aF-2.8422646522521973
aF-0.1517242193222046
aF0.49165305495262146
aF-0.17513108253479004
aF-0.857471227645874
aF1.7355976104736328
aF-3.063934564590454
aF-13.342615127563477
aF171.4668731689453
aF-2.7039618492126465
aF28.5165958404541
aF1.6541558504104614
aF-3.0540051460266113
aF-15.738659858703613
aF179.23110961914062
aF-2.3313465118408203
aF14.975320816040039
aF-1.6903955936431885
aF-0.2188272923231125
aF-8.774971008300781
aF-39.457862854003906
aF-2.066218614578247
aF4.74176025390625
aF-2.0964527130126953
aF-0.2290838658809662
aF-7.6230010986328125
aF-32.69187927246094
aF-2.7593955993652344
aF18.964462280273438
aF-1.9987186193466187
aF-0.22536952793598175
aF-7.850017547607422
aF-34.24003601074219
aF-2.6758251190185547
aF15.617179870605469
aF-2.1402745246887207
aF-0.6452260613441467
aF-13.737762451171875
aF-18.2513427734375
aF-2.2756285667419434
aF11.685104370117188
aF-2.0783634185791016
aF-0.20024894177913666
aF-0.17465443909168243
aF-0.8604971766471863
aF-2.7916691303253174
aF0.4785816967487335
aF1.7751784324645996
aF-3.118147611618042
aF-4.245326519012451
aF181.04212951660156
aF-3.0289406776428223
aF37.52573776245117
aF1.7313508987426758
aF-3.1307175159454346
aF-1.8647987842559814
aF171.4656219482422
aF-3.074538469314575
aF27.768613815307617
aF-2.973771333694458
aF-1.4929063320159912
aF-1.3078429698944092
aF-0.10207436978816986
aF-2.0025055408477783
aF0.6025118827819824
aF3.1415927410125732
aF3.1415927410125732
aF0.0
aF0.0
aF3.1415927410125732
aF0.0
aF-0.9978505373001099
aF1.2367602586746216
aF0.9242780804634094
aF-0.32076209783554077
aF1.350541353225708
aF-0.20693403482437134
aF2.3863909244537354
aF2.6123690605163574
aF0.3721057176589966
aF0.6362146735191345
aF2.638306140899658
aF0.67584627866745
aF-2.360257863998413
aF-0.1207365170121193
aF-0.08513140678405762
aF-0.7016712427139282
aF-3.0218238830566406
aF0.7073966860771179
aF1.8287113904953003
aF3.075834274291992
aF13.172279357910156
aF200.02444458007812
aF2.8969502449035645
aF52.76451110839844
aF-2.360257863998413
aF-0.1207364946603775
aF-0.08513139933347702
aF-0.701671302318573
aF-3.0218241214752197
aF0.7073967456817627
aF1.7258210182189941
aF3.0711669921875
aF15.412952423095703
aF218.4925537109375
aF2.717585325241089
aF34.14570999145508
aF1.9454047679901123
aF3.0814547538757324
aF10.93160629272461
aF181.55633544921875
aF2.989633798599243
aF71.38331604003906
aF2.833789110183716
aF2.4511961936950684
aF9.44869327545166
aF11.439056396484375
aF2.8847978115081787
aF35.98235321044922
aF0.22748547792434692
aF1.7961643934249878
aF15.834909439086914
aF3.6303558349609375
aF0.7902374267578125
aF-15.682388305664062
aF3.1415927410125732
aF3.1415927410125732
aF0.0
aF0.0
aF3.1415927410125732
aF0.0
aF-0.9560195207595825
aF1.248259425163269
aF0.9255390167236328
aF-0.30932188034057617
aF1.3390672206878662
aF-0.21839763224124908
aF0.8839712738990784
aF3.0017998218536377
aF0.10816790163516998
aF0.768726110458374
aF0.16994062066078186
aF-0.6303648948669434
aF2.4971513748168945
aF2.5664727687835693
aF0.3628736138343811
aF0.5598036646842957
aF2.6883060932159424
aF0.74494469165802
aF1.667427659034729
aF3.100264072418213
aF8.600529670715332
aF207.98306274414062
aF2.7383642196655273
aF20.160457611083984
aF2.4971513748168945
aF2.5664727687835693
aF0.3628735840320587
aF0.5598036646842957
aF2.6883063316345215
aF0.74494469165802
aF1.6020572185516357
aF3.132538080215454
aF1.7881062030792236
aF197.4735565185547
aF2.859739065170288
aF6.175205707550049
aF1.7258210182189941
aF3.0711669921875
aF15.412952423095703
aF218.4925537109375
aF2.717585325241089
aF34.14570999145508
aF0.22748547792434692
aF1.7961643934249878
aF15.834909439086914
aF3.6303558349609375
aF0.7902374267578125
aF-15.682388305664062
aF-1.1447091102600098
aF0.24113458395004272
aF8.143558502197266
aF-33.114723205566406
aF0.4965257942676544
aF-15.030563354492188
aF3.1415927410125732
aF3.1415927410125732
aF0.0
aF0.0
aF3.1415927410125732
aF0.0
aF-0.9560195207595825
aF1.248259425163269
aF0.9255390167236328
aF-0.30932188034057617
aF1.3390672206878662
aF-0.21839763224124908
aF-0.44425299763679504
aF-0.692739725112915
aF-0.3359663486480713
aF-0.4048019051551819
aF-0.3762286305427551
aF-0.8504481315612793
aF1.0632293224334717
aF2.9413437843322754
aF0.17465443909168243
aF0.8604971766471863
aF0.3499234616756439
aF-0.4785816967487335
aF1.6333731412887573
aF-3.140286445617676
aF-0.2448486089706421
aF187.45748901367188
aF-3.1207501888275146
aF11.745833396911621
aF1.0632293224334717
aF2.9413437843322754
aF0.17465442419052124
aF0.860497236251831
aF0.34992343187332153
aF-0.47858166694641113
aF1.668078064918518
aF-3.128756523132324
aF-2.277803421020508
aF177.44140625
aF-3.010803699493408
aF17.31646156311035
aF1.6020572185516357
aF3.132538080215454
aF1.7881062030792236
aF197.4735565185547
aF2.859739065170288
aF6.175205707550049
aF-1.1447091102600098
aF0.24113458395004272
aF8.143558502197266
aF-33.114723205566406
aF0.4965257942676544
aF-15.030563354492188
aF-1.7792354822158813
aF0.11844228953123093
aF4.331485748291016
aF-36.399261474609375
aF2.6291162967681885
aF7.6988525390625
aF3.1415927410125732
aF3.1415927410125732
aF0.0
aF0.0
aF3.1415927410125732
aF0.0
aF-0.9560195207595825
aF1.248259425163269
aF0.9255390167236328
aF-0.30932188034057617
aF1.3390672206878662
aF-0.21839763224124908
aF-1.0624569654464722
aF-0.4358200132846832
aF-0.37681445479393005
aF-0.8091632127761841
aF-0.6961844563484192
aF-0.4508499801158905
aF0.5235084891319275
aF-3.0671439170837402
aF-0.03726156800985336
aF0.4995746314525604
aF-0.043027035892009735
aF-0.8654690980911255
aF1.7088649272918701
aF-3.1301519870758057
aF-1.9852750301361084
aF173.5194091796875
aF-3.059438943862915
aF24.11097526550293
aF0.5235085487365723
aF-3.0671439170837402
aF-0.037261564284563065
aF0.4995746910572052
aF-0.043027035892009735
aF-0.8654690384864807
aF1.7510470151901245
aF-3.1316120624542236
aF-1.6927467584609985
aF169.597412109375
aF-3.0868756771087646
aF30.905488967895508
aF1.668078064918518
aF-3.128756523132324
aF-2.277803421020508
aF177.44140625
aF-3.010803699493408
aF17.31646156311035
aF-1.7792354822158813
aF0.11844228953123093
aF4.331485748291016
aF-36.399261474609375
aF2.6291162967681885
aF7.6988525390625
aF-2.2044198513031006
aF0.12288106232881546
aF3.6975574493408203
aF-29.938934326171875
aF2.9750447273254395
aF21.995513916015625
aF-2.1066672801971436
aF0.12049555778503418
aF3.8023643493652344
aF-31.403182983398438
aF2.9404499530792236
aF18.648178100585938
aF-2.300715684890747
aF-0.04042620211839676
aF-0.7469253540039062
aF-18.466201782226562
aF-3.0964183807373047
aF16.523048400878906
aF-2.1333625316619873
aF-0.5475368499755859
aF-0.4583815336227417
aF-0.7517886757850647
aF-2.3729710578918457
aF0.4740254878997803
aF1.7772706747055054
aF3.0955939292907715
aF8.576803207397461
aF186.32571411132812
aF2.925269365310669
aF39.02766799926758
aF1.7246719598770142
aF3.0987892150878906
aF7.65004301071167
aF178.61569213867188
aF2.8721678256988525
aF27.70359992980957
aF-2.4662039279937744
aF-0.43953102827072144
aF-0.363747775554657
aF-0.7735894918441772
aF-2.7813620567321777
aF0.9657036662101746
aF3.1415927410125732
aF3.1415927410125732
aF0.0
aF0.0
aF3.1415927410125732
aF0.0
aF-1.135960340499878
aF1.0302574634552002
aF0.833939790725708
aF-0.5004993081092834
aF1.2989306449890137
aF-0.23247550427913666
aF2.504910945892334
aF2.367734670639038
aF0.5023420453071594
aF0.5140722393989563
aF2.5159072875976562
aF0.6952569484710693
aF-2.34424090385437
aF-0.31692561507225037
aF-0.2284664362668991
aF-0.6965846419334412
aF-2.817518472671509
aF0.6801271438598633
aF1.8227254152297974
aF3.0106935501098633
aF25.3348445892334
aF192.43817138671875
aF2.668809413909912
aF49.53316879272461
aF-2.344240665435791
aF-0.3169255256652832
aF-0.22846640646457672
aF-0.6965847611427307
aF-2.817518472671509
aF0.6801270246505737
aF1.7269210815429688
aF2.995086431503296
aF30.90127182006836
aF209.40997314453125
aF2.388456344604492
aF32.96234130859375
aF1.9310855865478516
aF3.0294034481048584
aF19.768417358398438
aF175.4663543701172
aF2.8510074615478516
aF66.10399627685547
aF3.006499767303467
aF1.8302091360092163
aF19.435239791870117
aF5.1579742431640625
aF2.6682727336883545
aF37.94837188720703
aF0.0
aF1.5707963705062866
aF32.07197952270508
aF0.0
aF1.3021430969238281
aF-8.829696655273438
aF3.1415927410125732
aF3.1415927410125732
aF0.0
aF0.0
aF3.1415927410125732
aF0.0
aF-1.3210738897323608
aF0.9424643516540527
aF0.8000684380531311
aF-0.5813001990318298
aF1.3875675201416016
aF-0.14825846254825592
aF0.8235583901405334
aF2.6350066661834717
aF0.3770101070404053
aF0.6794381141662598
aF0.5396372079849243
aF-0.6294658184051514
aF2.6108016967773438
aF2.3355050086975098
aF0.46664106845855713
aF0.44772079586982727
aF2.592552423477173
aF0.7627530097961426
aF1.6770727634429932
aF3.023927688598633
aF23.96825408935547
aF202.758056640625
aF2.304957628250122
aF21.629901885986328
aF2.6108014583587646
aF2.335505247116089
aF0.4666409492492676
aF0.44772085547447205
aF2.592552661895752
aF0.7627529501914978
aF1.6232577562332153
aF3.0549428462982178
aF17.035236358642578
aF196.10614013671875
aF2.1145036220550537
aF10.297464370727539
aF1.7269210815429688
aF2.995086431503296
aF30.90127182006836
aF209.40997314453125
aF2.388456344604492
aF32.96234130859375
aF0.0
aF1.5707963705062866
aF32.07197952270508
aF0.0
aF1.3021430969238281
aF-8.829696655273438
aF-1.186498761177063
aF0.6801846027374268
aF22.72611427307129
aF-28.09276580810547
aF1.1072267293930054
aF-11.36083984375
aF3.1415927410125732
aF3.1415927410125732
aF0.0
aF0.0
aF3.1415927410125732
aF0.0
aF-1.3210738897323608
aF0.9424643516540527
aF0.8000684380531311
aF-0.5813001990318298
aF1.3875675201416016
aF-0.14825846254825592
aF-0.34436744451522827
aF-0.893405020236969
aF-0.3870101571083069
aF-0.31129390001296997
aF-0.41943517327308655
aF-0.8679396510124207
aF1.0082300901412964
aF2.5940558910369873
aF0.4583815336227417
aF0.7517886757850647
aF0.7686216831207275
aF-0.4740254878997803
aF1.6453866958618164
aF3.0718469619750977
aF13.268143653869629
aF189.92776489257812
aF2.389864921569824
aF14.193122863769531
aF1.0082299709320068
aF2.594055652618408
aF0.45838162302970886
aF0.7517885565757751
aF0.7686216831207275
aF-0.47402557730674744
aF1.6689229011535645
aF3.0899322032928467
aF9.50105094909668
aF183.74937438964844
aF2.6579532623291016
aF18.088781356811523
aF1.6232577562332153
aF3.0549428462982178
aF17.035236358642578
aF196.10614013671875
aF2.1145036220550537
aF10.297464370727539
aF-1.186498761177063
aF0.6801846027374268
aF22.72611427307129
aF-28.09276580810547
aF1.1072267293930054
aF-11.36083984375
aF-1.6744645833969116
aF0.4685073494911194
aF15.288936614990234
aF-30.209945678710938
aF1.7735503911972046
aF3.1430816650390625
aF3.1415927410125732
aF3.1415927410125732
aF0.0
aF0.0
aF3.1415927410125732
aF0.0
aF-1.3210738897323608
aF0.9424643516540527
aF0.8000684380531311
aF-0.5813001990318298
aF1.3875675201416016
aF-0.14825846254825592
aF-0.9609494209289551
aF-0.7079876661300659
aF-0.5744085311889648
aF-0.6710100769996643
aF-0.8862588405609131
aF-0.4688286781311035
aF0.48624110221862793
aF2.7819626331329346
aF0.1730472892522812
aF0.4602559506893158
aF0.19617587327957153
aF-0.8707577586174011
aF1.7051982879638672
aF3.095909357070923
aF8.247740745544434
aF180.41592407226562
aF2.8155698776245117
aF24.39531707763672
aF0.48624107241630554
aF2.7819623947143555
aF0.17304734885692596
aF0.4602559804916382
aF0.1961759328842163
aF-0.8707578182220459
aF1.742465853691101
aF3.1021149158477783
aF6.994431018829346
aF177.08248901367188
aF2.917597770690918
aF30.701854705810547
aF1.6689229011535645
aF3.0899322032928467
aF9.50105094909668
aF183.74937438964844
aF2.6579532623291016
aF18.088781356811523
aF-1.6744645833969116
aF0.4685073494911194
aF15.288936614990234
aF-30.209945678710938
aF1.7735503911972046
aF3.1430816650390625
aF-2.1485402584075928
aF0.4456891119480133
aF11.63885498046875
aF-24.361846923828125
aF2.5091893672943115
aF15.882675170898438
aF-2.0347836017608643
aF0.4537917673587799
aF12.569978713989258
aF-25.771873474121094
aF2.369030237197876
aF12.896881103515625
aF-2.4005374908447266
aF0.7475544810295105
aF11.227333068847656
aF-12.1109619140625
aF2.4381065368652344
aF13.235641479492188
a.