(lp0
F3.1415927410125732
aF3.1415927410125732
aF0.0
aF0.0
aF3.1415927410125732
aF0.0
aF-0.04230599105358124
aF1.5631920099258423
aF0.9842169880867004
aF-0.007484481669962406
aF1.3930493593215942
aF-0.1768074780702591
aF2.407834529876709
aF2.937638998031616
aF0.13719677925109863
aF0.6633328199386597
aF2.9572110176086426
aF0.735640287399292
aF-2.2889742851257324
aF0.14827986061573029
aF0.11177631467580795
aF-0.7482870817184448
aF2.9722886085510254
aF0.6538902521133423
aF2.5254626274108887
aF2.74163818359375
aF44.11878204345703
aF104.36395263671875
aF2.8507463932037354
aF147.3895263671875
aF0.8526183366775513
aF-2.9933128356933594
aF-0.11177631467580795
aF0.7482870817184448
aF-0.16930407285690308
aF-0.6538902521133423
aF1.8984953165054321
aF2.988415002822876
aF30.346599578857422
aF196.56190490722656
aF2.7153027057647705
aF66.8223876953125
aF3.1415927410125732
aF3.1415927410125732
aF0.0
aF0.0
aF3.1415927410125732
aF0.0
aF0.521705150604248
aF1.7897955179214478
aF0.9130784869194031
aF0.2032228410243988
aF1.2013798952102661
aF-0.3535366654396057
aF2.8799283504486084
aF2.2561211585998535
aF0.30169200897216797
aF0.24663518369197845
aF2.8250226974487305
aF0.9209522604942322
aF-1.742058277130127
aF0.28182950615882874
aF0.27435311675071716
aF-0.9475608468055725
aF2.109269618988037
aF0.16388657689094543
aF0.295310378074646
aF1.3995343446731567
aF-2.8597631454467773
aF-0.27435311675071716
aF0.9475608468055725
aF-1.0323230028152466
aF-0.16388657689094543
aF1.0
aF-0.26166442036628723
aF-0.8854714632034302
aF-0.30169200897216797
aF-0.24663518369197845
aF-0.316569983959198
aF-0.9209522604942322
aF1.8054128885269165
aF3.103072166442871
aF9.283241271972656
aF240.87596130371094
aF2.9817278385162354
aF57.57375717163086
aF2.893808364868164
aF2.265780448913574
aF10.259469032287598
aF8.553831100463867
aF2.846993923187256
aF33.81187438964844
aF0.5211246609687805
aF1.6632347106933594
aF-3.1386921405792236
aF-0.708439826965332
aF244.24752807617188
aF-3.1103146076202393
aF22.64237403869629
aF31.037384033203125
aF1.749592900276184
aF3.084703207015991
aF13.514443397521973
aF237.29942321777344
aF2.836320161819458
aF42.886295318603516
aF1.8984953165054321
aF2.988415002822876
aF30.346599578857422
aF196.56190490722656
aF2.7153027057647705
aF66.8223876953125
aF3.0617623329162598
aF2.086390733718872
aF6.9571380615234375
aF3.9427947998046875
aF3.001357316970825
aF49.2847900390625
aF-1.24355947971344
aF0.11337412148714066
aF3.9115142822265625
aF-34.352996826171875
aF0.3236466348171234
aF-11.660797119140625
aF0.9818482995033264
aF-2.66036057472229
aF-0.39827993512153625
aF0.7627283334732056
aF-0.6634604930877686
aF-0.5095278024673462
aF1.5976308584213257
aF-3.035836935043335
aF-26.291980743408203
aF247.6829376220703
aF-1.81846022605896
aF6.648059368133545
aF1.646262526512146
aF-3.0379624366760254
aF-26.378646850585938
aF253.6339569091797
aF-2.1994123458862305
aF19.177204132080078
aF2.4455881118774414
aF2.2242844104766846
aF24.495243072509766
aF18.756568908691406
aF2.3126559257507324
aF22.45001792907715
aF3.1415927410125732
aF3.1415927410125732
aF0.0
aF0.0
aF3.1415927410125732
aF0.0
aF2.4979326725006104
aF2.2663776874542236
aF0.5837266445159912
aF0.48727336525917053
aF2.4094650745391846
aF0.649482786655426
aF-2.633852243423462
aF-0.8614554405212402
aF-0.49284887313842773
aF-0.42305323481559753
aF-2.566490650177002
aF0.7603459358215332
aF-1.561901330947876
aF0.7013858556747437
aF0.6452621221542358
aF-0.7639310359954834
aF1.5602656602859497
aF-0.006795300170779228
aF1.918906331062317
aF3.1175365447998047
aF4.472489356994629
aF185.8838348388672
aF3.0753862857818604
aF67.45503997802734
aF3.1415927410125732
aF3.1415927410125732
aF0.0
aF0.0
aF3.1415927410125732
aF0.0
aF1.918906331062317
aF3.1175365447998047
aF4.472489356994629
aF185.8838348388672
aF3.0753862857818604
aF67.45503997802734
aF1.918906331062317
aF3.1175365447998047
aF4.472489356994629
aF185.8838348388672
aF3.0753862857818604
aF67.45503997802734
aF-3.029219388961792
aF-1.269948959350586
aF-19.061647415161133
aF-5.914161682128906
aF-2.792750597000122
aF52.40794372558594
aF-3.029219388961792
aF-1.269948959350586
aF-19.061647415161133
aF-5.914161682128906
aF-2.792750597000122
aF52.40794372558594
aF3.1415927410125732
aF3.1415927410125732
aF0.0
aF0.0
aF3.1415927410125732
aF0.0
aF2.3475022315979004
aF2.5597646236419678
aF0.42472997307777405
aF0.645698070526123
aF2.551755428314209
aF0.634569525718689
aF-2.9407360553741455
aF-1.400575041770935
aF-0.7576084136962891
aF-0.13022127747535706
aF-2.2719244956970215
aF0.6395873427391052
aF-2.093871593475342
aF0.5824708342552185
aF0.49561476707458496
aF-0.7524070739746094
aF2.2898714542388916
aF0.4338773787021637
aF1.8471136093139648
aF-3.1080262660980225
aF-6.8173346519470215
aF203.0232391357422
aF-3.023726463317871
aF57.571556091308594
aF-2.093871593475342
aF0.5824708938598633
aF0.49561476707458496
aF-0.7524069547653198
aF2.2898714542388916
aF0.43387743830680847
aF1.7841049432754517
aF-3.059532880783081
aF-18.107158660888672
aF220.1626434326172
aF-2.778707981109619
aF47.68807601928711
aF1.918906331062317
aF3.1175365447998047
aF4.472489356994629
aF185.8838348388672
aF3.0753862857818604
aF67.45503997802734
aF-3.029219388961792
aF-1.269948959350586
aF-19.061647415161133
aF-5.914161682128906
aF-2.792750597000122
aF52.40794372558594
aF-2.00754714012146
aF-0.8526760339736938
aF-25.72405433654785
aF-22.476333618164062
aF-1.9580776691436768
aF10.492340087890625
aF3.1415927410125732
aF3.1415927410125732
aF0.0
aF0.0
aF3.1415927410125732
aF0.0
aF2.3475022315979004
aF2.5597646236419678
aF0.42472997307777405
aF0.645698070526123
aF2.551755428314209
aF0.634569525718689
aF-3.0791661739349365
aF-1.526146650314331
aF-0.813005268573761
aF-0.036324575543403625
aF-2.1913747787475586
aF0.5811221599578857
aF-2.1597442626953125
aF0.4812321662902832
aF0.39827993512153625
aF-0.7627283334732056
aF2.4781322479248047
aF0.5095278024673462
aF1.7405060529708862
aF-3.0372278690338135
aF-24.304080963134766
aF232.03009033203125
aF-2.592930316925049
aF39.760223388671875
aF-2.1597442626953125
aF0.48123201727867126
aF0.3982798457145691
aF-0.7627284526824951
aF2.4781322479248047
aF0.5095278024673462
aF1.7005780935287476
aF-3.017181873321533
aF-30.501001358032227
aF243.89755249023438
aF-2.3775501251220703
aF31.832372665405273
aF1.7841049432754517
aF-3.059532880783081
aF-18.107158660888672
aF220.1626434326172
aF-2.778707981109619
aF47.68807601928711
aF-2.00754714012146
aF-0.8526760339736938
aF-25.72405433654785
aF-22.476333618164062
aF-1.9580776691436768
aF10.492340087890625
aF-1.0954400300979614
aF-0.6505764722824097
aF-26.611557006835938
aF-34.96393585205078
aF-0.9761711359024048
aF-17.996734619140625
aF3.1415927410125732
aF3.1415927410125732
aF0.0
aF0.0
aF3.1415927410125732
aF0.0
aF2.3475022315979004
aF2.5597646236419678
aF0.42472997307777405
aF0.645698070526123
aF2.551755428314209
aF0.634569525718689
aF1.808820128440857
aF-2.0590434074401855
aF-0.8774918913841248
aF0.4660698175430298
aF-1.6989566087722778
aF0.11307936161756516
aF-2.472283363342285
aF-0.35283929109573364
aF-0.22273856401443481
aF-0.6048578023910522
aF-2.8581056594848633
aF0.7645485997200012
aF1.6650489568710327
aF-3.029733657836914
aF-28.122150421142578
aF250.35743713378906
aF-2.2703804969787598
aF23.666980743408203
aF-2.4722838401794434
aF-0.3528396785259247
aF-0.22273866832256317
aF-0.6048573851585388
aF-2.8581056594848633
aF0.7645488977432251
aF1.631083607673645
aF-3.041686773300171
aF-25.743297576904297
aF256.81732177734375
aF-2.112802743911743
aF15.50158977508545
aF1.7005780935287476
aF-3.017181873321533
aF-30.501001358032227
aF243.89755249023438
aF-2.3775501251220703
aF31.832372665405273
aF-1.0954400300979614
aF-0.6505764722824097
aF-26.611557006835938
aF-34.96393585205078
aF-0.9761711359024048
aF-17.996734619140625
aF-0.9623998999595642
aF-0.29657724499702454
aF-13.868276596069336
aF-45.381980895996094
aF-0.4134415090084076
aF-31.610122680664062
aF-0.990624189376831
aF-0.3644636273384094
aF-16.394798278808594
aF-42.973724365234375
aF-0.527143120765686
aF-28.165603637695312
aF-1.1572412252426147
aF-0.22990281879901886
aF-13.09553337097168
aF-55.95404815673828
aF-0.489921510219574
aF-24.556243896484375
aF-1.6540714502334595
aF0.3992871344089508
aF0.38761717081069946
aF-0.9186260104179382
aF1.7660887241363525
aF0.07667597383260727
aF1.6753534078598022
aF-3.0693552494049072
aF-15.726676940917969
aF217.32911682128906
aF-2.537900447845459
aF22.80647087097168
aF1.7356325387954712
aF-3.0766079425811768
aF-14.356704711914062
aF220.6132354736328
aF-2.7686851024627686
aF36.69803237915039
aF2.6025543212890625
aF2.332636833190918
aF14.710147857666016
aF14.032906532287598
aF2.58156418800354
aF23.461570739746094
aF3.1415927410125732
aF3.1415927410125732
aF0.0
aF0.0
aF3.1415927410125732
aF0.0
aF0.7628320455551147
aF1.9691540002822876
aF0.8540517091751099
aF0.359435111284256
aF1.156042456626892
aF-0.37603461742401123
aF2.7427713871002197
aF2.583735466003418
aF0.2354925572872162
aF0.37741103768348694
aF2.884469747543335
aF0.8956027030944824
aF-1.8424135446548462
aF0.4978243112564087
aF0.4638306796550751
aF-0.8534443974494934
aF2.044344425201416
aF0.23768427968025208
aF1.8734045028686523
aF-3.134305715560913
aF-1.6737275123596191
aF229.68771362304688
aF-3.118255853652954
aF71.70764923095703
aF-1.8424135446548462
aF0.49782440066337585
aF0.46383073925971985
aF-0.8534443378448486
aF2.044344425201416
aF0.23768426477909088
aF1.8126498460769653
aF-3.0749351978302
aF-17.245824813842773
aF258.3402404785156
aF-2.8773062229156494
aF63.72792434692383
aF1.9481825828552246
aF3.072568416595459
aF13.898369789123535
aF201.0352020263672
aF2.9689183235168457
aF79.6873779296875
aF2.86875581741333
aF-2.3659799098968506
aF-11.700550079345703
aF11.931808471679688
aF-2.8737924098968506
aF42.641845703125
aF0.0861821398139
aF-1.6568602323532104
aF-22.849702835083008
aF1.971405029296875
aF-0.7860878109931946
aF-22.818206787109375
aF3.1415927410125732
aF3.1415927410125732
aF0.0
aF0.0
aF3.1415927410125732
aF0.0
aF0.7369678020477295
aF1.939536213874817
aF0.8669130206108093
aF0.33498746156692505
aF1.1682653427124023
aF-0.3691140413284302
aF1.431809425354004
aF-2.722090005874634
aF-0.404022216796875
aF0.9059281349182129
aF-1.266846776008606
aF-0.12672926485538483
aF2.8673791885375977
aF2.2964677810668945
aF0.29193809628486633
aF0.258993536233902
aF2.8345391750335693
aF0.9207032918930054
aF1.7492327690124512
aF-3.0511460304260254
aF-22.96941375732422
aF253.26254272460938
aF-2.6756556034088135
aF45.67708206176758
aF2.8673794269561768
aF2.2964670658111572
aF0.29193809628486633
aF0.2589932382106781
aF2.8345391750335693
aF0.9207033514976501
aF1.6816531419754028
aF-3.026492118835449
aF-28.693004608154297
aF248.1848602294922
aF-2.3372554779052734
aF27.626239776611328
aF1.8126498460769653
aF-3.0749351978302
aF-17.245824813842773
aF258.3402404785156
aF-2.8773062229156494
aF63.72792434692383
aF0.0861821398139
aF-1.6568602323532104
aF-22.849702835083008
aF1.971405029296875
aF-0.7860878109931946
aF-22.818206787109375
aF-1.0321227312088013
aF-0.5455690026283264
aF-22.602413177490234
aF-37.23472595214844
aF-0.7931985855102539
aF-22.252517700195312
aF3.1415927410125732
aF3.1415927410125732
aF0.0
aF0.0
aF3.1415927410125732
aF0.0
aF0.7369678020477295
aF1.939536213874817
aF0.8669130206108093
aF0.33498746156692505
aF1.1682653427124023
aF-0.3691140413284302
aF-0.22249364852905273
aF-0.981429398059845
aF-0.3133922815322876
aF-0.20954634249210358
aF-0.32626569271087646
aF-0.9262157678604126
aF1.4875212907791138
aF-2.7423055171966553
aF-0.38761717081069946
aF0.9186260104179382
aF-1.3755038976669312
aF-0.07667597383260727
aF1.6898345947265625
aF-3.0393776893615723
aF-24.41761016845703
aF238.05247497558594
aF-2.43270206451416
aF28.47197151184082
aF1.4875211715698242
aF-2.7423055171966553
aF-0.3876172602176666
aF0.9186259508132935
aF-1.3755037784576416
aF-0.07667603343725204
aF1.6987253427505493
aF-3.053447723388672
aF-20.1422176361084
aF227.9200897216797
aF-2.5396227836608887
aF29.317703247070312
aF1.6816531419754028
aF-3.026492118835449
aF-28.693004608154297
aF248.1848602294922
aF-2.3372554779052734
aF27.626239776611328
aF-1.0321227312088013
aF-0.5455690026283264
aF-22.602413177490234
aF-37.23472595214844
aF-0.7931985855102539
aF-22.252517700195312
aF-1.5595808029174805
aF-0.47333359718322754
aF-19.511131286621094
aF-38.09526824951172
aF-1.5489007234573364
aF-0.427276611328125
aF3.1415927410125732
aF3.1415927410125732
aF0.0
aF0.0
aF3.1415927410125732
aF0.0
aF0.7369678020477295
aF1.939536213874817
aF0.8669130206108093
aF0.33498746156692505
aF1.1682653427124023
aF-0.3691140413284302
aF-0.8049183487892151
aF-0.023055199533700943
aF-0.016618238762021065
aF-0.7206745147705078
aF-0.023972975090146065
aF-0.6930744051933289
aF0.7754275798797607
aF-2.4543144702911377
aF-0.4981823265552521
aF0.6069692373275757
aF-0.677517831325531
aF-0.6191952228546143
aF1.7226091623306274
aF-3.0688767433166504
aF-16.25796127319336
aF223.18763732910156
aF-2.697216272354126
aF34.145477294921875
aF0.7754276990890503
aF-2.454314708709717
aF-0.4981822669506073
aF0.6069693565368652
aF-0.6775177717208862
aF-0.6191952228546143
aF1.747342824935913
aF-3.0850112438201904
aF-12.373706817626953
aF218.45518493652344
aF-2.8341660499572754
aF38.9732551574707
aF1.6987253427505493
aF-3.053447723388672
aF-20.1422176361084
aF227.9200897216797
aF-2.5396227836608887
aF29.317703247070312
aF-1.5595808029174805
aF-0.47333359718322754
aF-19.511131286621094
aF-38.09526824951172
aF-1.5489007234573364
aF-0.427276611328125
aF-1.9682409763336182
aF-0.5464113354682922
aF-17.754945755004883
aF-29.193649291992188
aF-2.174936532974243
aF12.255035400390625
aF-1.8589348793029785
aF-0.5288405418395996
aF-18.322641372680664
aF-31.355026245117188
aF-2.0401859283447266
aF9.293212890625
aF-1.7825238704681396
aF-0.32582801580429077
aF-15.329765319824219
aF-45.37178039550781
aF-2.1374011039733887
aF9.75262451171875
aF-1.692435622215271
aF0.2716667950153351
aF0.26649603247642517
aF-0.9567142724990845
aF1.9843380451202393
aF0.11695139110088348
aF1.6789536476135254
aF-3.128007650375366
aF-2.8847978115081787
aF212.33807373046875
aF-3.017117500305176
aF23.055879592895508
aF1.7182508707046509
aF-3.124234199523926
aF-3.7627127170562744
aF216.7449951171875
aF-3.0252432823181152
aF32.19370651245117
aF2.6498148441314697
aF2.291574716567993
aF15.411908149719238
aF13.538528442382812
aF2.5940003395080566
aF25.27381706237793
aF3.1415927410125732
aF3.1415927410125732
aF0.0
aF0.0
aF3.1415927410125732
aF0.0
aF0.33763715624809265
aF1.7681487798690796
aF0.8561216592788696
aF0.1711859107017517
aF1.0530736446380615
aF-0.48759719729423523
aF2.6761536598205566
aF2.3902831077575684
aF0.386616051197052
aF0.4139156639575958
aF2.702955961227417
aF0.8241370320320129
aF-1.8826031684875488
aF0.3662283420562744
aF0.3429047763347626
aF-0.8940744996070862
aF2.269693613052368
aF0.288178950548172
aF1.8513948917388916
aF3.087955951690674
aF12.592154502868652
aF234.5418701171875
aF2.9574170112609863
aF67.59554290771484
aF-1.8826031684875488
aF0.3662283718585968
aF0.34290483593940735
aF-0.894074559211731
aF2.269693613052368
aF0.2881789207458496
aF1.7893725633621216
aF3.1352250576019287
aF1.6747592687606812
aF263.00738525390625
aF3.1129331588745117
aF58.420509338378906
aF1.9274038076400757
aF3.0280020236968994
aF23.509550094604492
aF206.0763397216797
aF2.8444290161132812
aF76.77057647705078
aF2.8187806606292725
aF-3.076768159866333
aF-0.8691215515136719
aF13.388519287109375
aF-3.1198809146881104
aF40.023895263671875
aF0.17036041617393494
aF-2.5327529907226562
aF-2.748889923095703
aF3.9427947998046875
aF-0.11936650425195694
aF-22.919509887695312
aF3.1415927410125732
aF3.1415927410125732
aF0.0
aF0.0
aF3.1415927410125732
aF0.0
aF0.34840336441993713
aF1.7762669324874878
aF0.8535264730453491
aF0.1778850108385086
aF1.0498723983764648
aF-0.48974430561065674
aF1.3838295936584473
aF-2.8346505165100098
aF-0.2973487973213196
aF0.938129723072052
aF-1.0326980352401733
aF-0.17747187614440918
aF2.8066539764404297
aF2.177731990814209
aF0.4278741180896759
aF0.29710182547569275
aF2.6769447326660156
aF0.85361248254776
aF1.7241591215133667
aF-3.111436128616333
aF-7.736677169799805
aF256.4723815917969
aF-2.948864221572876
aF39.644615173339844
aF2.8066539764404297
aF2.177732229232788
aF0.4278741180896759
aF0.2971019148826599
aF2.6769447326660156
aF0.85361248254776
aF1.6540988683700562
aF-3.0730903148651123
aF-17.148113250732422
aF249.93739318847656
aF-2.4537510871887207
aF20.86871910095215
aF1.7893725633621216
aF3.1352250576019287
aF1.6747592687606812
aF263.00738525390625
aF3.1129331588745117
aF58.420509338378906
aF0.17036041617393494
aF-2.5327529907226562
aF-2.748889923095703
aF3.9427947998046875
aF-0.11936650425195694
aF-22.919509887695312
aF-1.0659229755401611
aF-0.2313694953918457
aF-9.315834045410156
aF-39.54283905029297
aF-0.40296339988708496
aF-21.853240966796875
aF3.1415927410125732
aF3.1415927410125732
aF0.0
aF0.0
aF3.1415927410125732
aF0.0
aF0.34840336441993713
aF1.7762669324874878
aF0.8535264730453491
aF0.1778850108385086
aF1.0498723983764648
aF-0.48974430561065674
aF-0.26053711771965027
aF-1.0956637859344482
aF-0.44774147868156433
aF-0.2303360253572464
aF-0.47812291979789734
aF-0.863986611366272
aF1.4491571187973022
aF-2.8699259757995605
aF-0.26649603247642517
aF0.9567142724990845
aF-1.1572545766830444
aF-0.11695139110088348
aF1.6647682189941406
aF-3.0840201377868652
aF-13.6898775100708
aF237.5224151611328
aF-2.592740058898926
aF22.38636016845703
aF1.4491569995880127
aF-2.8699257373809814
aF-0.26649609208106995
aF0.9567142128944397
aF-1.1572544574737549
aF-0.11695145070552826
aF1.6765891313552856
aF-3.0961716175079346
aF-10.23164176940918
aF225.10743713378906
aF-2.7371580600738525
aF23.904003143310547
aF1.6540988683700562
aF-3.0730903148651123
aF-17.148113250732422
aF249.93739318847656
aF-2.4537510871887207
aF20.86871910095215
aF-1.0659229755401611
aF-0.2313694953918457
aF-9.315834045410156
aF-39.54283905029297
aF-0.40296339988708496
aF-21.853240966796875
aF-1.670250415802002
aF-0.21998557448387146
aF-9.119653701782227
aF-40.7847900390625
aF-1.9905270338058472
aF4.06964111328125
aF3.1415927410125732
aF3.1415927410125732
aF0.0
aF0.0
aF3.1415927410125732
aF0.0
aF0.34840336441993713
aF1.7762669324874878
aF0.8535264730453491
aF0.1778850108385086
aF1.0498723983764648
aF-0.48974430561065674
aF-0.8790174126625061
aF-0.26079756021499634
aF-0.2013164609670639
aF-0.7543453574180603
aF-0.3116835653781891
aF-0.6248477697372437
aF0.804650604724884
aF-2.49139142036438
aF-0.4805873930454254
aF0.6319177150726318
aF-0.6688502430915833
aF-0.6080425381660461
aF1.7025718688964844
aF-3.113786220550537
aF-6.11033821105957
aF219.68838500976562
aF-2.934748649597168
aF29.118305206298828
aF0.8046505451202393
aF-2.491391181945801
aF-0.4805874526500702
aF0.6319177150726318
aF-0.668850302696228
aF-0.6080425977706909
aF1.7296768426895142
aF-3.132310152053833
aF-1.9890342950820923
aF214.26934814453125
aF-3.0837230682373047
aF34.33260726928711
aF1.6765891313552856
aF-3.0961716175079346
aF-10.23164176940918
aF225.10743713378906
aF-2.7371580600738525
aF23.904003143310547
aF-1.670250415802002
aF-0.21998557448387146
aF-9.119653701782227
aF-40.7847900390625
aF-1.9905270338058472
aF4.06964111328125
aF-2.0991690158843994
aF-0.23418492078781128
aF-7.482944488525391
aF-31.366867065429688
aF-2.7536230087280273
aF18.30987548828125
aF-1.9976274967193604
aF-0.23157484829425812
aF-7.843166351318359
aF-33.26121520996094
aF-2.663261890411377
aF15.126907348632812
aF-1.9723490476608276
aF-0.11029713600873947
aF-4.706592559814453
aF-42.498756408691406
aF-2.886465549468994
aF18.0460205078125
aF-1.7893929481506348
aF0.11007940024137497
aF0.10727336257696152
aF-0.9705696105957031
aF2.6799166202545166
aF0.21560844779014587
aF1.6800365447998047
aF3.0963761806488037
aF9.591745376586914
aF211.9850616455078
aF2.7503137588500977
aF23.249858856201172
aF1.7206662893295288
aF3.09670090675354
aF9.737030029296875
aF216.7545623779297
aF2.8524386882781982
aF32.73042297363281
aF2.7674033641815186
aF2.2243685722351074
aF15.729557037353516
aF12.046584129333496
aF2.667799711227417
aF30.67704200744629
aF3.1415927410125732
aF3.1415927410125732
aF0.0
aF0.0
aF3.1415927410125732
aF0.0
aF0.012097890488803387
aF1.577792763710022
aF0.8656546473503113
aF0.006056560669094324
aF1.0464881658554077
aF-0.500605046749115
aF2.679558515548706
aF2.2847020626068115
aF0.45752814412117004
aF0.3963763117790222
aF2.6198995113372803
aF0.7959609031677246
aF-1.9258167743682861
aF0.21787330508232117
aF0.2032487541437149
aF-0.9180681705474854
aF2.603257417678833
aF0.34035393595695496
aF1.8287466764450073
aF3.0260043144226074
aF27.31263542175293
aF235.23904418945312
aF2.727017402648926
aF62.062660217285156
aF-1.9258168935775757
aF0.21787339448928833
aF0.20324881374835968
aF-0.9180680513381958
aF2.603257656097412
aF0.3403540551662445
aF1.7683284282684326
aF3.0595431327819824
aF21.502731323242188
aF261.482177734375
aF2.751743793487549
aF52.33357620239258
aF1.901675820350647
aF2.9844157695770264
aF33.12253952026367
aF208.9958953857422
aF2.7093238830566406
aF71.79174041748047
aF2.8337883949279785
aF2.4511969089508057
aF10.26181411743164
aF12.423477172851562
aF2.8847975730895996
aF39.07881164550781
aF0.2274862825870514
aF1.7961657047271729
aF17.19760513305664
aF3.9427947998046875
aF0.790236234664917
aF-17.031997680664062
aF3.1415927410125732
aF3.1415927410125732
aF0.0
aF0.0
aF3.1415927410125732
aF0.0
aF-0.027247631922364235
aF1.5553412437438965
aF0.8697761297225952
aF-0.01344358455389738
aF1.0549077987670898
aF-0.4932633340358734
aF1.3066350221633911
aF-3.004519462585449
aF-0.13198848068714142
aF0.9568665623664856
aF-0.4715929329395294
aF-0.2588154077529907
aF2.8054041862487793
aF2.1188151836395264
aF0.47546660900115967
aF0.2902165353298187
aF2.621626853942871
aF0.8304853439331055
aF1.708439826965332
aF3.0954203605651855
aF11.808384895324707
aF255.56491088867188
aF2.8196349143981934
aF35.40071105957031
aF2.8054041862487793
aF2.1188149452209473
aF0.47546663880348206
aF0.29021650552749634
aF2.621626615524292
aF0.8304852843284607
aF1.6446374654769897
aF3.133124828338623
aF2.1140387058258057
aF249.6476593017578
aF3.0276174545288086
aF18.467845916748047
aF1.7683284282684326
aF3.0595431327819824
aF21.502731323242188
aF261.482177734375
aF2.751743793487549
aF52.33357620239258
aF0.2274862825870514
aF1.7961657047271729
aF17.19760513305664
aF3.9427947998046875
aF0.790236234664917
aF-17.031997680664062
aF-1.1368869543075562
aF0.2465043067932129
aF9.061939239501953
aF-36.01415252685547
aF0.49748051166534424
aF-16.68756103515625
aF3.1415927410125732
aF3.1415927410125732
aF0.0
aF0.0
aF3.1415927410125732
aF0.0
aF-0.027247631922364235
aF1.5553412437438965
aF0.8697761297225952
aF-0.01344358455389738
aF1.0549077987670898
aF-0.4932633340358734
aF-0.27793028950691223
aF-1.1077756881713867
aF-0.48164498805999756
aF-0.2404451072216034
aF-0.5192189812660217
aF-0.8427361845970154
aF1.352199673652649
aF-3.031513214111328
aF-0.10727336257696152
aF0.9705696105957031
aF-0.4616759419441223
aF-0.21560844779014587
aF1.6598416566848755
aF3.1269750595092773
aF3.4701404571533203
aF237.37815856933594
aF2.9792964458465576
aF21.193470001220703
aF1.352199673652649
aF-3.031513214111328
aF-0.1072733923792839
aF0.9705696105957031
aF-0.4616759419441223
aF-0.21560850739479065
aF1.6766549348831177
aF3.1201562881469727
aF4.826241970062256
aF225.10865783691406
aF2.9424922466278076
aF23.919095993041992
aF1.6446374654769897
aF3.133124828338623
aF2.1140387058258057
aF249.6476593017578
aF3.0276174545288086
aF18.467845916748047
aF-1.1368869543075562
aF0.2465043067932129
aF9.061939239501953
aF-36.01415252685547
aF0.49748051166534424
aF-16.68756103515625
aF-1.7934473752975464
aF0.12695834040641785
aF4.624286651611328
aF-36.227745056152344
aF2.628223180770874
aF8.202133178710938
aF3.1415927410125732
aF3.1415927410125732
aF0.0
aF0.0
aF3.1415927410125732
aF0.0
aF-0.027247631922364235
aF1.5553412437438965
aF0.8697761297225952
aF-0.01344358455389738
aF1.0549077987670898
aF-0.4932633340358734
aF-0.9540635943412781
aF-0.39553016424179077
aF-0.3224228024482727
aF-0.7722067832946777
aF-0.5322295427322388
aF-0.5474853515625
aF0.7543280720710754
aF-2.6100125312805176
aF-0.3735411465167999
aF0.6352290511131287
aF-0.5048300623893738
aF-0.6759815812110901
aF1.705093264579773
aF3.1051435470581055
aF8.011155128479004
aF219.69252014160156
aF2.8779804706573486
aF29.682697296142578
aF0.7543283104896545
aF-2.6100127696990967
aF-0.37354105710983276
aF0.635229229927063
aF-0.5048300623893738
aF-0.6759814620018005
aF1.7347350120544434
aF3.0893895626068115
aF11.196067810058594
aF214.27638244628906
aF2.8356497287750244
aF35.4463005065918
aF1.6766549348831177
aF3.1201562881469727
aF4.826241970062256
aF225.10865783691406
aF2.9424922466278076
aF23.919095993041992
aF-1.7934473752975464
aF0.12695834040641785
aF4.624286651611328
aF-36.227745056152344
aF2.628223180770874
aF8.202133178710938
aF-2.2685508728027344
aF0.15665461122989655
aF4.163787841796875
aF-26.36163330078125
aF2.9553945064544678
aF22.103103637695312
aF-2.1535112857818604
aF0.14860300719738007
aF4.295352935791016
aF-28.691802978515625
aF2.918229818344116
aF18.909500122070312
aF-2.085120916366577
aF0.16778221726417542
aF6.545158386230469
aF-38.643104553222656
aF2.8503639698028564
aF21.835296630859375
aF-1.7102662324905396
aF0.01517198421061039
aF0.01502411812543869
aF-0.9901780486106873
aF3.0339255332946777
aF0.13900254666805267
aF1.6579443216323853
aF3.041069746017456
aF22.15865707397461
aF219.690673828125
aF2.284630298614502
aF19.1942138671875
aF1.6967231035232544
aF3.0378596782684326
aF23.388023376464844
aF224.6543426513672
aF2.45337176322937
aF28.440488815307617
aF2.8498308658599854
aF2.1089539527893066
aF18.473052978515625
aF11.027080535888672
aF2.6754438877105713
aF36.716243743896484
aF3.1415927410125732
aF3.1415927410125732
aF0.0
aF0.0
aF3.1415927410125732
aF0.0
aF-0.277357816696167
aF1.3653662204742432
aF0.7957841753959656
aF-0.16581721603870392
aF0.9389786124229431
aF-0.5824363827705383
aF2.742835283279419
aF2.0455870628356934
aF0.6027463674545288
aF0.3098161816596985
aF2.4549574851989746
aF0.73533034324646
aF-1.9252598285675049
aF0.062422726303339005
aF0.05851778760552406
aF-0.9362257122993469
aF2.974285364151001
aF0.3464925289154053
aF1.794551968574524
aF2.971029281616211
aF40.00508117675781
aF232.26783752441406
aF2.4937126636505127
aF52.8563232421875
aF-1.9252597093582153
aF0.06242268159985542
aF0.05851775035262108
aF-0.9362257719039917
aF2.974285364151001
aF0.3464924097061157
aF1.7391514778137207
aF2.993081569671631
aF38.456642150878906
aF257.04132080078125
aF2.419790744781494
aF43.687782287597656
aF1.861264944076538
aF2.943943977355957
aF41.55352020263672
aF207.49435424804688
aF2.551320791244507
aF62.024864196777344
aF3.0064990520477295
aF1.8302099704742432
aF21.10776138305664
aF5.60186767578125
aF2.6682724952697754
aF41.21403503417969
aF1.5911861055428744e-06
aF1.5707967281341553
aF34.831974029541016
aF1.52587890625e-05
aF1.3021425008773804
aF-9.589569091796875
aF3.1415927410125732
aF3.1415927410125732
aF0.0
aF0.0
aF3.1415927410125732
aF0.0
aF-0.1203431710600853
aF1.4767564535140991
aF0.7863475680351257
aF-0.07416680455207825
aF0.9083976149559021
aF-0.6133162379264832
aF1.378874659538269
aF-3.0844173431396484
aF-0.0560983270406723
aF0.9800936579704285
aF-0.2864621877670288
aF-0.19044530391693115
aF2.905808210372925
aF1.8616454601287842
aF0.6152320504188538
aF0.1841622143983841
aF2.4652585983276367
aF0.766533613204956
aF1.6934473514556885
aF3.029771566390991
aF28.529354095458984
aF254.0697021484375
aF2.4027745723724365
aF31.319114685058594
aF2.9058077335357666
aF1.861646056175232
aF0.6152320504188538
aF0.18416255712509155
aF2.4652585983276367
aF0.7665335536003113
aF1.6461238861083984
aF3.0676448345184326
aF18.60206413269043
aF251.09808349609375
aF2.365471601486206
aF18.950448989868164
aF1.7391514778137207
aF2.993081569671631
aF38.456642150878906
aF257.04132080078125
aF2.419790744781494
aF43.687782287597656
aF1.5911861055428744e-06
aF1.5707967281341553
aF34.831974029541016
aF1.52587890625e-05
aF1.3021425008773804
aF-9.589569091796875
aF-1.1520111560821533
aF0.6757646799087524
aF24.24094009399414
aF-30.23766326904297
aF1.063947319984436
aF-13.459274291992188
aF3.1415927410125732
aF3.1415927410125732
aF0.0
aF0.0
aF3.1415927410125732
aF0.0
aF-0.1203431710600853
aF1.4767564535140991
aF0.7863475680351257
aF-0.07416680455207825
aF0.9083976149559021
aF-0.6133162379264832
aF-0.15126943588256836
aF-1.3811994791030884
aF-0.6176016330718994
aF-0.11851885169744492
aF-0.6712758541107178
aF-0.7775098085403442
aF1.4313263893127441
aF-3.126420736312866
aF-0.01502411812543869
aF0.9901780486106873
aF-0.1076672300696373
aF-0.13900254666805267
aF1.6539489030838013
aF3.0644073486328125
aF18.736162185668945
aF242.26026916503906
aF2.3935532569885254
aF20.191112518310547
aF1.4313265085220337
aF-3.126420497894287
aF-0.015024183318018913
aF0.9901780486106873
aF-0.10766777396202087
aF-0.13900244235992432
aF1.6623550653457642
aF3.0609264373779297
aF18.87026023864746
aF233.42245483398438
aF2.4196670055389404
aF21.43177604675293
aF1.6461238861083984
aF3.0676448345184326
aF18.60206413269043
aF251.09808349609375
aF2.365471601486206
aF18.950448989868164
aF-1.1520111560821533
aF0.6757646799087524
aF24.24094009399414
aF-30.23766326904297
aF1.063947319984436
aF-13.459274291992188
aF-1.6872256994247437
aF0.555741012096405
aF20.016490936279297
aF-32.23100280761719
aF1.7569448947906494
aF3.769683837890625
aF3.1415927410125732
aF3.1415927410125732
aF0.0
aF0.0
aF3.1415927410125732
aF0.0
aF-0.1203431710600853
aF1.4767564535140991
aF0.7863475680351257
aF-0.07416680455207825
aF0.9083976149559021
aF-0.6133162379264832
aF-0.9035658836364746
aF-0.6165629625320435
aF-0.4864315390586853
aF-0.6863396763801575
aF-0.7326413989067078
aF-0.5406683087348938
aF0.8985999226570129
aF-2.657050132751465
aF-0.3808436393737793
aF0.72348952293396
aF-0.5843761563301086
aF-0.575778603553772
aF1.6843035221099854
aF3.045869827270508
aF21.865921020507812
aF227.73159790039062
aF2.4416046142578125
aF25.960765838623047
aF0.8986000418663025
aF-2.657050371170044
aF-0.38084352016448975
aF0.7234896421432495
aF-0.5843760967254639
aF-0.5757785439491272
aF1.707258939743042
aF3.030088424682617
aF24.86157989501953
aF222.0407257080078
aF2.4575271606445312
aF30.489757537841797
aF1.6623550653457642
aF3.0609264373779297
aF18.87026023864746
aF233.42245483398438
aF2.4196670055389404
aF21.43177604675293
aF-1.6872256994247437
aF0.555741012096405
aF20.016490936279297
aF-32.23100280761719
aF1.7569448947906494
aF3.769683837890625
aF-2.188518762588501
aF0.6762282252311707
aF19.97168731689453
aF-24.888633728027344
aF2.2954821586608887
aF17.682785034179688
aF-2.0692780017852783
aF0.6422946453094482
aF19.881847381591797
aF-26.57586669921875
aF2.1998093128204346
aF14.466110229492188
aF-2.0118143558502197
aF0.5202935338020325
aF21.01950454711914
aF-36.68634796142578
aF2.2599101066589355
aF17.316864013671875
a.