(lp0
F3.1415927410125732
aF3.1415927410125732
aF0.0
aF0.0
aF3.1415927410125732
aF0.0
aF-0.03361846134066582
aF1.5649255514144897
aF0.9850865602493286
aF-0.005783290136605501
aF1.3979719877243042
aF-0.17196239531040192
aF2.426997184753418
aF2.937391519546509
aF0.13447435200214386
aF0.6493597030639648
aF2.96382999420166
aF0.7484976053237915
aF-2.270740270614624
aF0.14022085070610046
aF0.10733667016029358
aF-0.7604594230651855
aF2.975541114807129
aF0.6404532194137573
aF2.5255062580108643
aF2.7298293113708496
aF45.44919204711914
aF104.06723022460938
aF2.8417062759399414
aF146.98406982421875
aF0.8708524107933044
aF-3.0013718605041504
aF-0.10733667016029358
aF0.7604594230651855
aF-0.16605165600776672
aF-0.6404532194137573
aF1.9023032188415527
aF2.9800710678100586
aF32.22402572631836
aF197.76495361328125
aF2.6994688510894775
aF68.07254791259766
aF3.1415927410125732
aF3.1415927410125732
aF0.0
aF0.0
aF3.1415927410125732
aF0.0
aF0.5371798872947693
aF1.788693904876709
aF0.9177716970443726
aF0.20320646464824677
aF1.2148815393447876
aF-0.34117791056632996
aF2.902479410171509
aF2.225182056427002
aF0.29499101638793945
aF0.22630178928375244
aF2.8339133262634277
aF0.9283145070075989
aF-1.7246673107147217
aF0.27214568853378296
aF0.26584866642951965
aF-0.9526251554489136
aF2.078054666519165
aF0.14774927496910095
aF0.3377479314804077
aF1.416925311088562
aF-2.8694469928741455
aF-0.26584866642951965
aF0.9526251554489136
aF-1.0635380744934082
aF-0.14774927496910095
aF1.0
aF-0.23911327123641968
aF-0.916410505771637
aF-0.29499101638793945
aF-0.22630178928375244
aF-0.30767929553985596
aF-0.9283145070075989
aF1.8115074634552002
aF3.0938849449157715
aF11.573575973510742
aF242.4088897705078
aF2.949491024017334
aF59.504234313964844
aF-3.0115761756896973
aF-1.467146396636963
aF-4.368415355682373
aF-0.4544142484664917
aF-2.242823839187622
aF3.475335121154785
aF0.5396032929420471
aF1.6728546619415283
aF3.138195753097534
aF0.8368131518363953
aF246.353515625
aF3.1084375381469727
aF25.230098724365234
aF30.607309341430664
aF1.7586803436279297
aF3.0856525897979736
aF13.330556869506836
aF238.0523223876953
aF2.8551595211029053
aF45.26006317138672
aF1.9023032188415527
aF2.9800710678100586
aF32.22402572631836
aF197.76495361328125
aF2.6994688510894775
aF68.07254791259766
aF3.061762809753418
aF2.0863888263702393
aF6.957141876220703
aF3.942779541015625
aF3.001357078552246
aF49.2847900390625
aF-1.2408279180526733
aF0.07732042670249939
aF2.641254425048828
aF-34.09175109863281
aF0.22246667742729187
aF-11.676071166992188
aF1.0046583414077759
aF-2.6675329208374023
aF-0.3973744809627533
aF0.7744826078414917
aF-0.6791932582855225
aF-0.4922095239162445
aF1.6153404712677002
aF-3.0413601398468018
aF-25.17843246459961
aF250.35848999023438
aF-1.9879910945892334
aF11.159384727478027
aF1.6517776250839233
aF-3.053013324737549
aF-22.716190338134766
aF255.7794952392578
aF-2.3112003803253174
aF20.75875473022461
aF2.90993070602417
aF-1.6877461671829224
aF-5.630616664886475
aF0.6615182161331177
aF-2.0328738689422607
aF2.804266929626465
aF3.1415927410125732
aF3.1415927410125732
aF0.0
aF0.0
aF3.1415927410125732
aF0.0
aF2.525696277618408
aF2.250805377960205
aF0.5812811255455017
aF0.4700682461261749
aF2.4226646423339844
aF0.6641898155212402
aF-2.615387201309204
aF-0.8587222099304199
aF-0.5029416680335999
aF-0.4341098368167877
aF-2.5492687225341797
aF0.7473943829536438
aF-1.550079584121704
aF0.6941583752632141
aF0.6396576762199402
aF-0.7684949636459351
aF1.5459085702896118
aF-0.015922948718070984
aF1.9203301668167114
aF3.1081387996673584
aF6.267295837402344
aF187.27191162109375
aF3.050035238265991
aF68.26067352294922
aF3.1415927410125732
aF3.1415927410125732
aF0.0
aF0.0
aF3.1415927410125732
aF0.0
aF1.9203301668167114
aF3.1081387996673584
aF6.267295837402344
aF187.27191162109375
aF3.050035238265991
aF68.26067352294922
aF1.9203301668167114
aF3.1081387996673584
aF6.267295837402344
aF187.27191162109375
aF3.050035238265991
aF68.26067352294922
aF-3.029219388961792
aF-1.2699486017227173
aF-19.061647415161133
aF-5.9141693115234375
aF-2.792750835418701
aF52.40797424316406
aF-3.029219388961792
aF-1.2699486017227173
aF-19.061647415161133
aF-5.9141693115234375
aF-2.792750835418701
aF52.40797424316406
aF3.1415927410125732
aF3.1415927410125732
aF0.0
aF0.0
aF3.1415927410125732
aF0.0
aF2.371985673904419
aF2.550875663757324
aF0.4228619933128357
aF0.6305778622627258
aF2.5653982162475586
aF0.6508143544197083
aF-2.9416399002075195
aF-1.4083882570266724
aF-0.7713977098464966
aF-0.12639448046684265
aF-2.2506983280181885
aF0.6236745715141296
aF-2.0854012966156006
aF0.5557126998901367
aF0.47553470730781555
aF-0.7657649517059326
aF2.309387683868408
aF0.43297889828681946
aF1.8486781120300293
aF-3.1192965507507324
aF-4.565115928649902
aF204.71560668945312
aF-3.0635783672332764
aF58.39765930175781
aF-2.0854012966156006
aF0.5557126402854919
aF0.4755346179008484
aF-0.7657649517059326
aF2.309387683868408
aF0.43297889828681946
aF1.7858846187591553
aF-3.072394847869873
aF-15.397527694702148
aF222.1593017578125
aF-2.83438777923584
aF48.53464126586914
aF1.9203301668167114
aF3.1081387996673584
aF6.267295837402344
aF187.27191162109375
aF3.050035238265991
aF68.26067352294922
aF-3.029219388961792
aF-1.2699486017227173
aF-19.061647415161133
aF-5.9141693115234375
aF-2.792750835418701
aF52.40797424316406
aF-2.003647565841675
aF-0.8355903625488281
aF-25.125577926635742
aF-22.72198486328125
aF-1.966614842414856
aF10.499298095703125
aF3.1415927410125732
aF3.1415927410125732
aF0.0
aF0.0
aF3.1415927410125732
aF0.0
aF2.371985673904419
aF2.550875663757324
aF0.4228619933128357
aF0.6305778622627258
aF2.5653982162475586
aF0.6508143544197083
aF-3.0544886589050293
aF-1.5088924169540405
aF-0.8144208192825317
aF-0.05048029124736786
aF-2.188068389892578
aF0.5780748128890991
aF-2.136934280395508
aF0.4740597903728485
aF0.3973744809627533
aF-0.7744826078414917
aF2.462399482727051
aF0.4922095239162445
aF1.743584394454956
aF-3.049710988998413
aF-21.580360412597656
aF234.2096405029297
aF-2.6558408737182617
aF40.876251220703125
aF-2.136934280395508
aF0.4740597903728485
aF0.3973744809627533
aF-0.7744826078414917
aF2.462399482727051
aF0.4922094941139221
aF1.70487642288208
aF-3.029327392578125
aF-27.763195037841797
aF246.25997924804688
aF-2.4454054832458496
aF33.217857360839844
aF1.7858846187591553
aF-3.072394847869873
aF-15.397527694702148
aF222.1593017578125
aF-2.83438777923584
aF48.53464126586914
aF-2.003647565841675
aF-0.8355903625488281
aF-25.125577926635742
aF-22.72198486328125
aF-1.966614842414856
aF10.499298095703125
aF-1.097117304801941
aF-0.64350825548172
aF-26.351276397705078
aF-35.13451385498047
aF-0.971257209777832
aF-18.010055541992188
aF3.1415927410125732
aF3.1415927410125732
aF0.0
aF0.0
aF3.1415927410125732
aF0.0
aF2.371985673904419
aF2.550875663757324
aF0.4228619933128357
aF0.6305778622627258
aF2.5653982162475586
aF0.6508143544197083
aF1.6596734523773193
aF-2.1215286254882812
aF-0.8512164354324341
aF0.5227434039115906
aF-1.6254665851593018
aF0.0465826615691185
aF-2.493607759475708
aF-0.496544748544693
aF-0.3108348846435547
aF-0.5736818909645081
aF-2.7523438930511475
aF0.7578065395355225
aF1.670016884803772
aF-3.0450446605682373
aF-24.44347381591797
aF252.3869171142578
aF-2.369932174682617
aF25.124469757080078
aF-2.49360728263855
aF-0.49654442071914673
aF-0.3108348250389099
aF-0.5736822485923767
aF-2.7523438930511475
aF0.7578063011169434
aF1.6365820169448853
aF-3.060061454772949
aF-21.123750686645508
aF258.51385498046875
aF-2.249338388442993
aF17.031084060668945
aF1.70487642288208
aF-3.029327392578125
aF-27.763195037841797
aF246.25997924804688
aF-2.4454054832458496
aF33.217857360839844
aF-1.097117304801941
aF-0.64350825548172
aF-26.351276397705078
aF-35.13451385498047
aF-0.971257209777832
aF-18.010055541992188
aF-0.9824323654174805
aF-0.26328587532043457
aF-12.245147705078125
aF-45.429283142089844
aF-0.38394835591316223
aF-30.309906005859375
aF-1.0011380910873413
aF-0.34624260663986206
aF-15.534078598022461
aF-43.057373046875
aF-0.512985348701477
aF-27.577667236328125
aF-1.144530177116394
aF-0.2819673717021942
aF-15.62034797668457
aF-53.921730041503906
aF-0.5678362250328064
aF-24.486373901367188
aF-1.6423330307006836
aF0.38734984397888184
aF0.37690722942352295
aF-0.923882007598877
aF1.7446744441986084
aF0.0662044882774353
aF1.6889801025390625
aF-3.073550224304199
aF-14.880525588989258
aF218.35743713378906
aF-2.620558023452759
aF25.927133560180664
aF1.7403866052627563
aF-3.0878162384033203
aF-11.984416007995605
aF222.6415557861328
aF-2.8370203971862793
aF38.12404251098633
aF0.5606676340103149
aF-1.63467538356781
aF-1.8044581413269043
aF0.11542407423257828
aF-1.4692703485488892
aF-0.18383143842220306
aF3.1415927410125732
aF3.1415927410125732
aF0.0
aF0.0
aF3.1415927410125732
aF0.0
aF0.7841886281967163
aF1.967460036277771
aF0.8601061701774597
aF0.3602692782878876
aF1.1732698678970337
aF-0.3611418306827545
aF2.764836311340332
aF2.570607900619507
aF0.22999247908592224
aF0.3580435812473297
aF2.8927087783813477
aF0.9049354791641235
aF-1.826395034790039
aF0.4862546920776367
aF0.4553249776363373
aF-0.8614004850387573
aF2.0299251079559326
aF0.22509628534317017
aF1.878088355064392
aF3.139841079711914
aF0.40465641021728516
aF231.02938842773438
aF3.136073350906372
aF73.31585693359375
aF-1.826395034790039
aF0.48625457286834717
aF0.45532482862472534
aF-0.8614004850387573
aF2.0299251079559326
aF0.2250962108373642
aF1.8185663223266602
aF-3.0844058990478516
aF-14.881879806518555
aF259.94903564453125
aF-2.9190313816070557
aF65.75874328613281
aF1.95142662525177
aF3.0641109943389893
aF15.691192626953125
aF202.10975646972656
aF2.949950933456421
aF80.87297058105469
aF2.8687562942504883
aF-2.3659794330596924
aF-11.700553894042969
aF11.931800842285156
aF-2.8737924098968506
aF42.64186096191406
aF0.08618141710758209
aF-1.6568596363067627
aF-22.849695205688477
aF1.9713897705078125
aF-0.7860873341560364
aF-22.818222045898438
aF3.1415927410125732
aF3.1415927410125732
aF0.0
aF0.0
aF3.1415927410125732
aF0.0
aF0.753350019454956
aF1.933071255683899
aF0.8747242093086243
aF0.33152252435684204
aF1.1867533922195435
aF-0.3534832000732422
aF1.44273841381073
aF-2.7346203327178955
aF-0.39309221506118774
aF0.9119699597358704
aF-1.28050696849823
aF-0.11742760241031647
aF2.88684344291687
aF2.2768194675445557
aF0.2834361791610718
aF0.24166826903820038
aF2.845176935195923
aF0.9280411601066589
aF1.7550538778305054
aF-3.0616774559020996
aF-20.438785552978516
aF255.21099853515625
aF-2.735738515853882
aF47.56404113769531
aF2.88684344291687
aF2.276819944381714
aF0.28343620896339417
aF0.2416684627532959
aF2.845176935195923
aF0.9280411005020142
aF1.687518835067749
aF-3.0381765365600586
aF-25.99569320678711
aF250.4729766845703
aF-2.417053699493408
aF29.369335174560547
aF1.8185663223266602
aF-3.0844058990478516
aF-14.881879806518555
aF259.94903564453125
aF-2.9190313816070557
aF65.75874328613281
aF0.08618141710758209
aF-1.6568596363067627
aF-22.849695205688477
aF1.9713897705078125
aF-0.7860873341560364
aF-22.818222045898438
aF-1.0346776247024536
aF-0.5447640419006348
aF-22.559974670410156
aF-37.23234558105469
aF-0.7951955199241638
aF-22.1221923828125
aF3.1415927410125732
aF3.1415927410125732
aF0.0
aF0.0
aF3.1415927410125732
aF0.0
aF0.753350019454956
aF1.933071255683899
aF0.8747242093086243
aF0.33152252435684204
aF1.1867533922195435
aF-0.3534832000732422
aF-0.202051043510437
aF-1.0104327201843262
aF-0.30462849140167236
aF-0.1911410391330719
aF-0.31556177139282227
aF-0.9330951571464539
aF1.4992595911026
aF-2.7542428970336914
aF-0.37690722942352295
aF0.923882007598877
aF-1.3969181776046753
aF-0.0662044882774353
aF1.6954145431518555
aF-3.050955295562744
aF-21.838428497314453
aF240.28262329101562
aF-2.5139307975769043
aF30.099567413330078
aF1.4992595911026
aF-2.7542426586151123
aF-0.37690725922584534
aF0.9238819479942322
aF-1.3969181776046753
aF-0.06620447337627411
aF1.7039918899536133
aF-3.064899444580078
aF-17.68116569519043
aF230.09225463867188
aF-2.620879650115967
aF30.829797744750977
aF1.687518835067749
aF-3.0381765365600586
aF-25.99569320678711
aF250.4729766845703
aF-2.417053699493408
aF29.369335174560547
aF-1.0346776247024536
aF-0.5447640419006348
aF-22.559974670410156
aF-37.23234558105469
aF-0.7951955199241638
aF-22.1221923828125
aF-1.5634137392044067
aF-0.47516676783561707
aF-19.56890869140625
aF-38.03606414794922
aF-1.5564476251602173
aF-0.2808074951171875
aF3.1415927410125732
aF3.1415927410125732
aF0.0
aF0.0
aF3.1415927410125732
aF0.0
aF0.753350019454956
aF1.933071255683899
aF0.8747242093086243
aF0.33152252435684204
aF1.1867533922195435
aF-0.3534832000732422
aF-0.7869361042976379
aF-0.023860227316617966
aF-0.01689845137298107
aF-0.7080923318862915
aF-0.02393370494246483
aF-0.7059176564216614
aF0.7932165265083313
aF-2.4811336994171143
aF-0.4843263626098633
aF0.623456597328186
aF-0.668049156665802
aF-0.6137832403182983
aF1.727625846862793
aF-3.079934597015381
aF-13.904943466186523
aF225.23126220703125
aF-2.7693724632263184
aF35.61537551879883
aF0.7932164669036865
aF-2.4811336994171143
aF-0.48432639241218567
aF0.623456597328186
aF-0.6680490970611572
aF-0.6137832999229431
aF1.75211501121521
aF-3.0956625938415527
aF-10.128721237182617
aF220.37025451660156
aF-2.8959505558013916
aF40.40095520019531
aF1.7039918899536133
aF-3.064899444580078
aF-17.68116569519043
aF230.09225463867188
aF-2.620879650115967
aF30.829797744750977
aF-1.5634137392044067
aF-0.47516676783561707
aF-19.56890869140625
aF-38.03606414794922
aF-1.5564476251602173
aF-0.2808074951171875
aF-1.9733988046646118
aF-0.5505720376968384
aF-17.878528594970703
aF-29.12322235107422
aF-2.1772894859313965
aF12.402542114257812
aF-1.863074541091919
aF-0.5305103063583374
aF-18.343257904052734
aF-31.27032470703125
aF-2.0447471141815186
aF9.409103393554688
aF-1.8118314743041992
aF-0.37941476702690125
aF-17.710468292236328
aF-44.416717529296875
aF-2.1232500076293945
aF10.918258666992188
aF-1.6700599193572998
aF0.26021361351013184
aF0.2561037242412567
aF-0.9618908762931824
aF1.9287339448928833
aF0.09579561650753021
aF1.6889853477478027
aF-3.129774332046509
aF-2.5268986225128174
aF213.80072021484375
aF-3.0423851013183594
aF25.387216567993164
aF1.721948504447937
aF-3.134678363800049
aF-1.5133869647979736
aF218.8731689453125
aF-3.0962278842926025
aF33.337440490722656
aF2.578697681427002
aF-1.9514878988265991
aF-1.0843538045883179
aF0.4339745044708252
aF-2.136030435562134
aF0.6877678036689758
aF3.1415927410125732
aF3.1415927410125732
aF0.0
aF0.0
aF3.1415927410125732
aF0.0
aF0.35063812136650085
aF1.770269513130188
aF0.8618196249008179
aF0.17422686517238617
aF1.0658602714538574
aF-0.476352721452713
aF2.7001967430114746
aF2.3726248741149902
aF0.3820333182811737
aF0.39479807019233704
aF2.712758779525757
aF0.8355746865272522
aF-1.8653572797775269
aF0.3542499244213104
aF0.3336426913738251
aF-0.9020972847938538
aF2.2577881813049316
aF0.2736842632293701
aF1.8570828437805176
aF3.0791642665863037
aF14.743200302124023
aF235.85531616210938
aF2.9323527812957764
aF69.42945098876953
aF-1.8653572797775269
aF0.3542499244213104
aF0.3336426913738251
aF-0.9020972847938538
aF2.2577884197235107
aF0.2736842930316925
aF1.7963742017745972
aF3.126019239425659
aF4.12069034576416
aF264.5762634277344
aF3.0738282203674316
aF60.71589660644531
aF1.9315447807312012
aF3.0197391510009766
aF25.36570930480957
aF207.1343536376953
aF2.827716827392578
aF78.14300537109375
aF2.8187813758850098
aF-3.076768398284912
aF-0.8691177368164062
aF13.388496398925781
aF-3.1198811531066895
aF40.02391052246094
aF0.1703597754240036
aF-2.5327517986297607
aF-2.7488861083984375
aF3.942779541015625
aF-0.11936634033918381
aF-22.919509887695312
aF3.1415927410125732
aF3.1415927410125732
aF0.0
aF0.0
aF3.1415927410125732
aF0.0
aF0.36190611124038696
aF1.7785518169403076
aF0.8592410087585449
aF0.18112555146217346
aF1.0627403259277344
aF-0.4784332811832428
aF1.4027526378631592
aF-2.845320701599121
aF-0.2881879508495331
aF0.9440853595733643
aF-1.0635557174682617
aF-0.16015800833702087
aF2.832723379135132
aF2.1484270095825195
aF0.42267313599586487
aF0.2754930257797241
aF2.6863417625427246
aF0.8633950352668762
aF1.7308173179626465
aF-3.1215720176696777
aF-5.1763458251953125
aF258.5165710449219
aF-3.0181641578674316
aF41.72482681274414
aF2.832723379135132
aF2.1484272480010986
aF0.42267313599586487
aF0.2754930853843689
aF2.6863417625427246
aF0.8633950352668762
aF1.6606041193008423
aF-3.0843253135681152
aF-14.473381996154785
aF252.45687866210938
aF-2.5746617317199707
aF22.73375701904297
aF1.7963742017745972
aF3.126019239425659
aF4.12069034576416
aF264.5762634277344
aF3.0738282203674316
aF60.71589660644531
aF0.1703597754240036
aF-2.5327517986297607
aF-2.7488861083984375
aF3.942779541015625
aF-0.11936634033918381
aF-22.919509887695312
aF-1.064466118812561
aF-0.23141473531723022
aF-9.318069458007812
aF-39.5443115234375
aF-0.4017975628376007
aF-21.9293212890625
aF3.1415927410125732
aF3.1415927410125732
aF0.0
aF0.0
aF3.1415927410125732
aF0.0
aF0.36190611124038696
aF1.7785518169403076
aF0.8592410087585449
aF0.18112555146217346
aF1.0627403259277344
aF-0.4784332811832428
aF-0.23049987852573395
aF-1.1375550031661987
aF-0.4428495764732361
aF-0.20484007894992828
aF-0.46950337290763855
aF-0.8728830218315125
aF1.4715327024459839
aF-2.8813791275024414
aF-0.2561037242412567
aF0.9618908762931824
aF-1.2128586769104004
aF-0.09579561650753021
aF1.6703799962997437
aF-3.095162868499756
aF-11.150003433227539
aF239.9747314453125
aF-2.7063088417053223
aF23.97686767578125
aF1.4715327024459839
aF-2.8813788890838623
aF-0.2561037838459015
aF0.9618909358978271
aF-1.21285879611969
aF-0.0957956314086914
aF1.6812061071395874
aF-3.1072022914886475
aF-7.826625823974609
aF227.49256896972656
aF-2.840682029724121
aF25.2199764251709
aF1.6606041193008423
aF-3.0843253135681152
aF-14.473381996154785
aF252.45687866210938
aF-2.5746617317199707
aF22.73375701904297
aF-1.064466118812561
aF-0.23141473531723022
aF-9.318069458007812
aF-39.5443115234375
aF-0.4017975628376007
aF-21.9293212890625
aF-1.6679036617279053
aF-0.21970625221729279
aF-9.139015197753906
aF-40.92505645751953
aF-1.9821357727050781
aF3.986663818359375
aF3.1415927410125732
aF3.1415927410125732
aF0.0
aF0.0
aF3.1415927410125732
aF0.0
aF0.36190611124038696
aF1.7785518169403076
aF0.8592410087585449
aF0.18112555146217346
aF1.0627403259277344
aF-0.4784332811832428
aF-0.8513537645339966
aF-0.27023714780807495
aF-0.20398123562335968
aF-0.7363585829734802
aF-0.306248277425766
aF-0.6451106071472168
aF0.8303589820861816
aF-2.5177931785583496
aF-0.46914446353912354
aF0.6518969535827637
aF-0.6670525670051575
aF-0.5957632660865784
aF1.7066318988800049
aF-3.1244540214538574
aF-3.8034515380859375
aF221.90219116210938
aF-3.0168373584747314
aF30.328975677490234
aF0.8303590416908264
aF-2.5177931785583496
aF-0.46914446353912354
aF0.6518968939781189
aF-0.6670526266098022
aF-0.5957632064819336
aF1.7331819534301758
aF3.1405768394470215
aF0.2197226732969284
aF216.3118133544922
aF3.135392427444458
aF35.4379768371582
aF1.6812061071395874
aF-3.1072022914886475
aF-7.826625823974609
aF227.49256896972656
aF-2.840682029724121
aF25.2199764251709
aF-1.6679036617279053
aF-0.21970625221729279
aF-9.139015197753906
aF-40.92505645751953
aF-1.9821357727050781
aF3.986663818359375
aF-2.0954508781433105
aF-0.2334306836128235
aF-7.512462615966797
aF-31.596160888671875
aF-2.7517945766448975
aF18.28656005859375
aF-1.9939104318618774
aF-0.23077382147312164
aF-7.86591911315918
aF-33.47772979736328
aF-2.6606812477111816
aF15.075454711914062
aF-1.9823158979415894
aF-0.16661067306995392
aF-7.114402770996094
aF-42.30491638183594
aF-2.773803234100342
aF18.463516235351562
aF-1.7640395164489746
aF0.1026775911450386
aF0.1006089374423027
aF-0.9764070510864258
aF2.656923532485962
aF0.19106829166412354
aF1.6904981136322021
aF3.0937108993530273
aF10.229151725769043
aF213.47012329101562
aF2.762465238571167
aF25.67550277709961
aF1.7251085042953491
aF3.0863122940063477
aF12.118644714355469
aF218.99851989746094
aF2.7998037338256836
aF34.06496047973633
aF1.8260046243667603
aF-2.6731350421905518
aF-1.1382875442504883
aF2.249460458755493
aF-2.04682993888855
aF0.5868780612945557
aF3.1415927410125732
aF3.1415927410125732
aF0.0
aF0.0
aF3.1415927410125732
aF0.0
aF0.0189135130494833
aF1.5815010070800781
aF0.8702566027641296
aF0.0093162152916193
aF1.0557997226715088
aF-0.49251052737236023
aF2.7046098709106445
aF2.2651689052581787
aF0.4530712962150574
aF0.3772788345813751
aF2.6303915977478027
aF0.8077048063278198
aF-1.9074615240097046
aF0.20582057535648346
aF0.1933385580778122
aF-0.9260528683662415
aF2.6037328243255615
aF0.3241085112094879
aF1.8352047204971313
aF3.0174453258514404
aF29.518821716308594
aF236.5495147705078
aF2.7097060680389404
aF64.04517364501953
aF-1.9074615240097046
aF0.20582059025764465
aF0.1933385580778122
aF-0.9260528087615967
aF2.6037328243255615
aF0.3241085410118103
aF1.7761350870132446
aF3.050626516342163
aF23.992204666137695
aF263.0209045410156
aF2.728787660598755
aF54.78047180175781
aF1.9065486192703247
aF2.9762938022613525
aF35.045440673828125
aF210.078125
aF2.695662498474121
aF73.30987548828125
aF2.833789348602295
aF2.451195478439331
aF10.261817932128906
aF12.423446655273438
aF2.8847978115081787
aF39.078857421875
aF0.22748582065105438
aF1.796164870262146
aF17.197608947753906
aF3.942779541015625
aF0.7902372479438782
aF-17.031967163085938
aF3.1415927410125732
aF3.1415927410125732
aF0.0
aF0.0
aF3.1415927410125732
aF0.0
aF-0.011044315062463284
aF1.564632773399353
aF0.8732154369354248
aF-0.0053821648471057415
aF1.0617878437042236
aF-0.4873046278953552
aF1.3356376886367798
aF-3.014735221862793
aF-0.1230887621641159
aF0.9650823473930359
aF-0.48917755484580994
aF-0.23122547566890717
aF2.84006404876709
aF2.0777785778045654
aF0.4715335965156555
aF0.26189136505126953
aF2.6311235427856445
aF0.8420623540878296
aF1.7157344818115234
aF3.08585262298584
aF14.37804889678955
aF257.6811828613281
aF2.7764570713043213
aF37.6115608215332
aF2.840064525604248
aF2.0777781009674072
aF0.4715336263179779
aF0.26189109683036804
aF2.6311235427856445
aF0.8420623540878296
aF1.6516317129135132
aF3.122716188430786
aF4.7638936042785645
aF252.34144592285156
aF2.912641763687134
aF20.442649841308594
aF1.7761350870132446
aF3.050626516342163
aF23.992204666137695
aF263.0209045410156
aF2.728787660598755
aF54.78047180175781
aF0.22748582065105438
aF1.796164870262146
aF17.197608947753906
aF3.942779541015625
aF0.7902372479438782
aF-17.031967163085938
aF-1.1288671493530273
aF0.24732756614685059
aF9.095573425292969
aF-36.02247619628906
aF0.49021419882774353
aF-17.043655395507812
aF3.1415927410125732
aF3.1415927410125732
aF0.0
aF0.0
aF3.1415927410125732
aF0.0
aF-0.011044315062463284
aF1.564632773399353
aF0.8732154369354248
aF-0.0053821648471057415
aF1.0617878437042236
aF-0.4873046278953552
aF-0.24812743067741394
aF-1.1456866264343262
aF-0.47683605551719666
aF-0.21587097644805908
aF-0.5101984739303589
aF-0.8520722389221191
aF1.377553105354309
aF-3.0389151573181152
aF-0.1006089374423027
aF0.9764070510864258
aF-0.48466920852661133
aF-0.19106829166412354
aF1.6657525300979614
aF3.1164488792419434
aF6.0357465744018555
aF239.99813842773438
aF2.8834316730499268
aF22.858049392700195
aF1.377553105354309
aF-3.0389151573181152
aF-0.1006089299917221
aF0.9764070510864258
aF-0.48466917872428894
aF-0.19106829166412354
aF1.681360125541687
aF3.109504222869873
aF7.3075995445251465
aF227.65484619140625
aF2.8601274490356445
aF25.273448944091797
aF1.6516317129135132
aF3.122716188430786
aF4.7638936042785645
aF252.34144592285156
aF2.912641763687134
aF20.442649841308594
aF-1.1288671493530273
aF0.24732756614685059
aF9.095573425292969
aF-36.02247619628906
aF0.49021419882774353
aF-17.043655395507812
aF-1.783700704574585
aF0.1302705854177475
aF4.765480041503906
aF-36.374229431152344
aF2.5967490673065186
aF7.8634033203125
aF3.1415927410125732
aF3.1415927410125732
aF0.0
aF0.0
aF3.1415927410125732
aF0.0
aF-0.011044315062463284
aF1.564632773399353
aF0.8732154369354248
aF-0.0053821648471057415
aF1.0617878437042236
aF-0.4873046278953552
aF-0.9301856160163879
aF-0.3994898796081543
aF-0.32061561942100525
aF-0.7594070434570312
aF-0.5152907967567444
aF-0.5661330223083496
aF0.7745596766471863
aF-2.6279702186584473
aF-0.367015540599823
aF0.6505935788154602
aF-0.5043975710868835
aF-0.6648515462875366
aF1.7092169523239136
aF3.094637155532837
aF10.436873435974121
aF222.10769653320312
aF2.8162739276885986
aF30.94215202331543
aF0.7745602130889893
aF-2.6279706954956055
aF-0.36701542139053345
aF0.6505939960479736
aF-0.5043976306915283
aF-0.6648512482643127
aF1.7382688522338867
aF3.079030752182007
aF13.566146850585938
aF216.56056213378906
aF2.786729097366333
aF36.61085510253906
aF1.681360125541687
aF3.109504222869873
aF7.3075995445251465
aF227.65484619140625
aF2.8601274490356445
aF25.273448944091797
aF-1.783700704574585
aF0.1302705854177475
aF4.765480041503906
aF-36.374229431152344
aF2.5967490673065186
aF7.8634033203125
aF-2.258279800415039
aF0.1639704555273056
aF4.386898040771484
aF-26.513992309570312
aF2.942753553390503
aF21.771011352539062
aF-2.1471309661865234
aF0.15261346101760864
aF4.422431945800781
aF-28.752670288085938
aF2.9092166423797607
aF18.687576293945312
aF-2.0957884788513184
aF0.11493560671806335
aF4.4272003173828125
aF-38.34919738769531
aF2.944857120513916
aF22.21221923828125
aF-1.6907955408096313
aF0.009664462879300117
aF0.009594820439815521
aF-0.9927630424499512
aF3.061610460281372
aF0.11970590054988861
aF1.6652687788009644
aF3.0385289192199707
aF22.833906173706055
aF220.7665557861328
aF2.3124470710754395
aF20.918622970581055
aF1.7031669616699219
aF3.0277562141418457
aF25.923389434814453
aF226.74021911621094
aF2.4320883750915527
aF30.190271377563477
aF2.581833600997925
aF-2.725764751434326
aF-0.9778168201446533
aF2.2143712043762207
aF-2.871647834777832
aF3.5338685512542725
aF3.1415927410125732
aF3.1415927410125732
aF0.0
aF0.0
aF3.1415927410125732
aF0.0
aF-0.2705395817756653
aF1.3728994131088257
aF0.7998809814453125
aF-0.16039325296878815
aF0.9447879791259766
aF-0.5783289670944214
aF2.7701878547668457
aF2.023319721221924
aF0.5982016324996948
aF0.29082828760147095
aF2.466170310974121
aF0.7467085719108582
aF-1.906000018119812
aF0.05129676312208176
aF0.04842740297317505
aF-0.9432353377342224
aF2.995260238647461
aF0.3285755217075348
aF1.8015557527542114
aF2.9626126289367676
aF42.2734375
aF233.66326904296875
aF2.4853906631469727
aF54.897926330566406
aF-1.906000018119812
aF0.05129680782556534
aF0.04842744022607803
aF-0.9432352185249329
aF2.995260238647461
aF0.32857558131217957
aF1.7475836277008057
aF2.98439884185791
aF40.992000579833984
aF258.6222229003906
aF2.415891170501709
aF46.20348358154297
aF1.8665601015090942
aF2.9358537197113037
aF43.55487823486328
aF208.70431518554688
aF2.5410680770874023
aF63.59236526489258
aF3.0064995288848877
aF1.8302092552185059
aF21.107765197753906
aF5.6018524169921875
aF2.6682724952697754
aF41.21403503417969
aF-7.95595610725286e-07
aF1.5707961320877075
aF34.83197021484375
aF-7.62939453125e-06
aF1.3021433353424072
aF-9.58953857421875
aF3.1415927410125732
aF3.1415927410125732
aF0.0
aF0.0
aF3.1415927410125732
aF0.0
aF-0.10758986324071884
aF1.4879529476165771
aF0.7910851836204529
aF-0.06568646430969238
aF0.9153851866722107
aF-0.6081689596176147
aF1.4018605947494507
aF-3.093539237976074
aF-0.04735272005200386
aF0.9846584796905518
aF-0.27481991052627563
aF-0.16794472932815552
aF2.9361674785614014
aF1.829905390739441
aF0.609870433807373
aF0.16165703535079956
aF2.475397825241089
aF0.775838315486908
aF1.7016185522079468
aF3.020509958267212
aF31.151227951049805
aF256.01373291015625
aF2.395249366760254
aF33.68467712402344
aF2.9361674785614014
aF1.82990562915802
aF0.6098703742027283
aF0.1616571694612503
aF2.475397825241089
aF0.7758382558822632
aF1.6541286706924438
aF3.0576937198638916
aF21.310455322265625
aF253.4052734375
aF2.352790594100952
aF21.165874481201172
aF1.7475836277008057
aF2.98439884185791
aF40.992000579833984
aF258.6222229003906
aF2.415891170501709
aF46.20348358154297
aF-7.95595610725286e-07
aF1.5707961320877075
aF34.83197021484375
aF-7.62939453125e-06
aF1.3021433353424072
aF-9.58953857421875
aF-1.1493690013885498
aF0.6761022210121155
aF24.2509765625
aF-30.229270935058594
aF1.061225175857544
aF-13.551345825195312
aF3.1415927410125732
aF3.1415927410125732
aF0.0
aF0.0
aF3.1415927410125732
aF0.0
aF-0.10758986324071884
aF1.4879529476165771
aF0.7910851836204529
aF-0.06568646430969238
aF0.9153851866722107
aF-0.6081689596176147
aF-0.12741734087467194
aF-1.4078844785690308
aF-0.6116307377815247
aF-0.10053283721208572
aF-0.6620628833770752
aF-0.7847298979759216
aF1.4507970809936523
aF-3.1319282054901123
aF-0.009594820439815521
aF0.9927630424499512
aF-0.07998228818178177
aF-0.11970590054988861
aF1.6614683866500854
aF3.0543212890625
aF21.396093368530273
aF244.54440307617188
aF2.375403881072998
aF22.23430633544922
aF1.4507969617843628
aF-3.1319282054901123
aF-0.009594792500138283
aF0.9927630424499512
aF-0.0799819603562355
aF-0.11970604211091995
aF1.6693490743637085
aF3.0506973266601562
aF21.481731414794922
aF235.6835174560547
aF2.396833658218384
aF23.3027400970459
aF1.6541286706924438
aF3.0576937198638916
aF21.310455322265625
aF253.4052734375
aF2.352790594100952
aF21.165874481201172
aF-1.1493690013885498
aF0.6761022210121155
aF24.2509765625
aF-30.229270935058594
aF1.061225175857544
aF-13.551345825195312
aF-1.6849396228790283
aF0.5574707388877869
aF20.07794189453125
aF-32.20552062988281
aF1.752652645111084
aF3.6920928955078125
aF3.1415927410125732
aF3.1415927410125732
aF0.0
aF0.0
aF3.1415927410125732
aF0.0
aF-0.10758986324071884
aF1.4879529476165771
aF0.7910851836204529
aF-0.06568646430969238
aF0.9153851866722107
aF-0.6081689596176147
aF-0.8821842670440674
aF-0.6212130784988403
aF-0.48369503021240234
aF-0.675795316696167
aF-0.7158024311065674
aF-0.5561832189559937
aF0.9136919379234314
aF-2.669929265975952
aF-0.3744640350341797
aF0.734156608581543
aF-0.584172785282135
aF-0.5663838982582092
aF1.6909488439559937
aF3.0357422828674316
aF24.42721176147461
aF229.90875244140625
aF2.419931411743164
aF27.757831573486328
aF0.9136922955513
aF-2.6699295043945312
aF-0.3744639456272125
aF0.7341569066047668
aF-0.5841729044914246
aF-0.5663836598396301
aF1.7135405540466309
aF3.0200679302215576
aF27.372690200805664
aF224.13397216796875
aF2.4372482299804688
aF32.21292495727539
aF1.6693490743637085
aF3.0506973266601562
aF21.481731414794922
aF235.6835174560547
aF2.396833658218384
aF23.3027400970459
aF-1.6849396228790283
aF0.5574707388877869
aF20.07794189453125
aF-32.20552062988281
aF1.752652645111084
aF3.6920928955078125
aF-2.1871824264526367
aF0.6808456182479858
aF20.097591400146484
aF-24.809974670410156
aF2.289391279220581
aF17.577056884765625
aF-2.068449020385742
aF0.6457443833351135
aF19.987152099609375
aF-26.525360107421875
aF2.1954574584960938
aF14.410125732421875
aF-2.0174403190612793
aF0.4722384512424469
aF19.101112365722656
aF-37.395591735839844
aF2.3240115642547607
aF17.909591674804688
a.