(lp0
F3.1415927410125732
aF3.1415927410125732
aF0.0
aF0.0
aF3.1415927410125732
aF0.0
aF0.04383385181427002
aF1.5781570672988892
aF0.9861828684806824
aF0.007259209640324116
aF1.404525637626648
aF-0.16550131142139435
aF2.436464548110962
aF2.9540035724639893
aF0.12210831046104431
aF0.6432812809944153
aF2.9814212322235107
aF0.7558298707008362
aF-2.26206374168396
aF0.145197793841362
aF0.11195062100887299
aF-0.765595555305481
aF2.9666826725006104
aF0.6335065364837646
aF2.5297579765319824
aF2.723647356033325
aF45.67627716064453
aF102.84894561767578
aF2.839517593383789
aF146.58087158203125
aF0.8795289993286133
aF-2.9963948726654053
aF-0.11195062100887299
aF0.765595555305481
aF-0.17491000890731812
aF-0.6335065364837646
aF1.9052666425704956
aF2.9812867641448975
aF31.88261604309082
aF197.17950439453125
aF2.7061145305633545
aF68.52526092529297
aF3.1415927410125732
aF3.1415927410125732
aF0.0
aF0.0
aF3.1415927410125732
aF0.0
aF0.5633979439735413
aF1.7880311012268066
aF0.9241839051246643
aF0.20398379862308502
aF1.2346502542495728
aF-0.3229159414768219
aF2.9033167362213135
aF2.2582952976226807
aF0.2762533128261566
aF0.22684262692928314
aF2.853996753692627
aF0.9339306950569153
aF-1.730393648147583
aF0.2701879143714905
aF0.2637578248977661
aF-0.9523302912712097
aF2.097269296646118
aF0.15329311788082123
aF0.32019510865211487
aF1.4111989736557007
aF-2.8714046478271484
aF-0.2637578248977661
aF0.9523302912712097
aF-1.0443233251571655
aF-0.15329311788082123
aF1.0
aF-0.23827598989009857
aF-0.8832974433898926
aF-0.2762533128261566
aF-0.22684262692928314
aF-0.28759580850601196
aF-0.9339306950569153
aF1.8122071027755737
aF3.094627857208252
aF11.364480972290039
aF241.80137634277344
aF2.952972888946533
aF59.534523010253906
aF-1.165626049041748
aF0.013713821768760681
aF0.07230611890554428
aF-5.27216911315918
aF0.031965430825948715
aF-2.2612392902374268
aF0.5382197499275208
aF1.6727453470230103
aF3.136766195297241
aF1.1859872341156006
aF245.72621154785156
aF3.094449758529663
aF25.138694763183594
aF30.674644470214844
aF1.7597503662109375
aF3.0858309268951416
aF13.292221069335938
aF238.12869262695312
aF2.8575937747955322
aF45.538631439208984
aF1.9052666425704956
aF2.9812867641448975
aF31.88261604309082
aF197.17950439453125
aF2.7061145305633545
aF68.52526092529297
aF3.061762809753418
aF2.08638858795166
aF6.957145690917969
aF3.942779541015625
aF3.001357078552246
aF49.28480529785156
aF-1.2399076223373413
aF0.07332327961921692
aF2.500762939453125
aF-34.04484558105469
aF0.21065890789031982
aF-11.695022583007812
aF1.003421425819397
aF-2.6605448722839355
aF-0.40286317467689514
aF0.7718523740768433
aF-0.686236560344696
aF-0.4918792247772217
aF1.6160695552825928
aF-3.0415892601013184
aF-25.130388259887695
aF250.45680236816406
aF-1.9949091672897339
aF11.34674072265625
aF1.6501164436340332
aF-3.053163528442383
aF-22.615833282470703
aF255.08419799804688
aF-2.3016927242279053
aF20.27584457397461
aF-0.977779746055603
aF-0.1340002715587616
aF-1.154516339302063
aF-8.564146041870117
aF-0.19742611050605774
aF-5.771664619445801
aF3.1415927410125732
aF3.1415927410125732
aF0.0
aF0.0
aF3.1415927410125732
aF0.0
aF2.5328850746154785
aF2.2633283138275146
aF0.5675098299980164
aF0.4708072543144226
aF2.442840099334717
aF0.6754798889160156
aF-2.609234094619751
aF-0.8723085522651672
aF-0.5172979831695557
aF-0.4343785047531128
aF-2.529832363128662
aF0.7373724579811096
aF-1.566933274269104
aF0.6952495574951172
aF0.6405742764472961
aF-0.7678905129432678
aF1.5661654472351074
aF-0.0029664412140846252
aF1.9210954904556274
aF3.1097960472106934
aF5.93721342086792
aF186.66183471679688
aF3.054755926132202
aF68.20018005371094
aF3.1415927410125732
aF3.1415927410125732
aF0.0
aF0.0
aF3.1415927410125732
aF0.0
aF1.9210954904556274
aF3.1097960472106934
aF5.93721342086792
aF186.66183471679688
aF3.054755926132202
aF68.20018005371094
aF1.9210954904556274
aF3.1097960472106934
aF5.93721342086792
aF186.66183471679688
aF3.054755926132202
aF68.20018005371094
aF-3.029219150543213
aF-1.2699477672576904
aF-19.061643600463867
aF-5.9141845703125
aF-2.792750835418701
aF52.407958984375
aF-3.029219150543213
aF-1.2699477672576904
aF-19.061643600463867
aF-5.9141845703125
aF-2.792750835418701
aF52.407958984375
aF3.1415927410125732
aF3.1415927410125732
aF0.0
aF0.0
aF3.1415927410125732
aF0.0
aF2.3764126300811768
aF2.5690503120422363
aF0.4076794683933258
aF0.632491409778595
aF2.5873119831085205
aF0.6585985422134399
aF-2.933262825012207
aF-1.4080579280853271
aF-0.7832100987434387
aF-0.12859559059143066
aF-2.2311627864837646
aF0.6083133220672607
aF-2.0963149070739746
aF0.5510888695716858
aF0.4694458246231079
aF-0.7638179063796997
aF2.327160358428955
aF0.4429478645324707
aF1.8482208251953125
aF-3.1182878017425537
aF-4.756496429443359
aF204.06117248535156
aF-3.0599215030670166
aF58.110076904296875
aF-2.0963149070739746
aF0.5510889291763306
aF0.4694458544254303
aF-0.7638178467750549
aF2.327160358428955
aF0.4429478645324707
aF1.7843239307403564
aF-3.0719404220581055
aF-15.450206756591797
aF221.46051025390625
aF-2.8303072452545166
aF48.01997756958008
aF1.9210954904556274
aF3.1097960472106934
aF5.93721342086792
aF186.66183471679688
aF3.054755926132202
aF68.20018005371094
aF-3.029219150543213
aF-1.2699477672576904
aF-19.061643600463867
aF-5.9141845703125
aF-2.792750835418701
aF52.407958984375
aF-2.0039896965026855
aF-0.8361389636993408
aF-25.212677001953125
aF-22.775619506835938
aF-1.9665420055389404
aF10.533538818359375
aF3.1415927410125732
aF3.1415927410125732
aF0.0
aF0.0
aF3.1415927410125732
aF0.0
aF2.3764126300811768
aF2.5690503120422363
aF0.4076794683933258
aF0.632491409778595
aF2.5873119831085205
aF0.6585985422134399
aF-3.0282979011535645
aF-1.4918879270553589
aF-0.8194502592086792
aF-0.06479604542255402
aF-2.178124189376831
aF0.5694758892059326
aF-2.1381711959838867
aF0.48104774951934814
aF0.40286317467689514
aF-0.7718523740768433
aF2.4553561210632324
aF0.4918792247772217
aF1.7420027256011963
aF-3.048835039138794
aF-21.718441009521484
aF233.4699249267578
aF-2.647987127304077
aF40.36672592163086
aF-2.1381711959838867
aF0.48104771971702576
aF0.40286320447921753
aF-0.7718524932861328
aF2.4553561210632324
aF0.4918791949748993
aF1.7032793760299683
aF-3.0280745029449463
aF-27.98667335510254
aF245.47933959960938
aF-2.4339089393615723
aF32.71347427368164
aF1.7843239307403564
aF-3.0719404220581055
aF-15.450206756591797
aF221.46051025390625
aF-2.8303072452545166
aF48.01997756958008
aF-2.0039896965026855
aF-0.8361389636993408
aF-25.212677001953125
aF-22.775619506835938
aF-1.9665420055389404
aF10.533538818359375
aF-1.096929907798767
aF-0.6551153063774109
aF-26.956512451171875
aF-35.08557891845703
aF-0.9822221994400024
aF-17.993270874023438
aF3.1415927410125732
aF3.1415927410125732
aF0.0
aF0.0
aF3.1415927410125732
aF0.0
aF2.3764126300811768
aF2.5690503120422363
aF0.4076794683933258
aF0.632491409778595
aF2.5873119831085205
aF0.6585985422134399
aF1.6433478593826294
aF-2.1106371879577637
aF-0.8571925759315491
aF0.5136412382125854
aF-1.614319086074829
aF0.0373309850692749
aF-2.4845311641693115
aF-0.4972659647464752
aF-0.3146718740463257
aF-0.5797648429870605
aF-2.7450811862945557
aF0.7515679001808167
aF1.6685746908187866
aF-3.044053316116333
aF-24.625972747802734
aF251.67123413085938
aF-2.357426404953003
aF24.686716079711914
aF-2.4845314025878906
aF-0.49726617336273193
aF-0.31467190384864807
aF-0.5797646045684814
aF-2.7450811862945557
aF0.751568078994751
aF1.6353144645690918
aF-3.059311628341675
aF-21.26527214050293
aF257.8631286621094
aF-2.2353546619415283
aF16.659957885742188
aF1.7032793760299683
aF-3.0280745029449463
aF-27.98667335510254
aF245.47933959960938
aF-2.4339089393615723
aF32.71347427368164
aF-1.096929907798767
aF-0.6551153063774109
aF-26.956512451171875
aF-35.08557891845703
aF-0.9822221994400024
aF-17.993270874023438
aF-0.9797535538673401
aF-0.27951428294181824
aF-13.034673690795898
aF-45.41246795654297
aF-0.4041719436645508
aF-30.474807739257812
aF-1.0000776052474976
aF-0.3562774062156677
aF-16.017324447631836
aF-43.03895568847656
aF-0.525360643863678
aF-27.630279541015625
aF-1.1270054578781128
aF-0.29946890473365784
aF-16.401796340942383
aF-53.122467041015625
aF-0.5759781002998352
aF-25.255477905273438
aF-1.6502602100372314
aF0.3848721981048584
aF0.3744222819805145
aF-0.9243322610855103
aF1.764906644821167
aF0.07360599935054779
aF1.690190076828003
aF-3.073906421661377
aF-14.808497428894043
aF218.44708251953125
aF-2.6272428035736084
aF26.205856323242188
aF1.7389812469482422
aF-3.0886099338531494
aF-11.772844314575195
aF221.99404907226562
aF-2.8388512134552
aF37.69210433959961
aF-1.0173169374465942
aF0.27206119894981384
aF1.923874855041504
aF-6.896141052246094
aF0.42409440875053406
aF-4.261144638061523
aF3.1415927410125732
aF3.1415927410125732
aF0.0
aF0.0
aF3.1415927410125732
aF0.0
aF0.8093861937522888
aF1.9654186964035034
aF0.8667784929275513
aF0.3609860837459564
aF1.1929198503494263
aF-0.3440699279308319
aF2.7660012245178223
aF2.6083855628967285
aF0.21160809695720673
aF0.35851597785949707
aF2.912928342819214
aF0.9092240333557129
aF-1.8365882635116577
aF0.4830802083015442
aF0.4515717625617981
aF-0.860903799533844
aF2.0495293140411377
aF0.23436637222766876
aF1.8781031370162964
aF-3.141305446624756
aF-0.066192626953125
aF230.41513061523438
aF-3.1406874656677246
aF73.12466430664062
aF-1.8365882635116577
aF0.4830802381038666
aF0.4515717923641205
aF-0.860903799533844
aF2.0495293140411377
aF0.23436637222766876
aF1.8173234462738037
aF-3.082941770553589
aF-15.226723670959473
aF259.3180847167969
aF-2.9123570919036865
aF65.2563247680664
aF1.952962040901184
aF3.066826820373535
aF15.094338417053223
aF201.51217651367188
aF2.9573404788970947
aF80.99299621582031
aF2.8687562942504883
aF-2.3659791946411133
aF-11.70054817199707
aF11.931793212890625
aF-2.8737924098968506
aF42.641845703125
aF0.08618141710758209
aF-1.6568596363067627
aF-22.84969711303711
aF1.9713897705078125
aF-0.7860873937606812
aF-22.818222045898438
aF3.1415927410125732
aF3.1415927410125732
aF0.0
aF0.0
aF3.1415927410125732
aF0.0
aF0.7778001427650452
aF1.9293676614761353
aF0.8820786476135254
aF0.33057889342308044
aF1.2072025537490845
aF-0.33564093708992004
aF1.4338706731796265
aF-2.7378580570220947
aF-0.3897392153739929
aF0.9123057126998901
aF-1.258795142173767
aF-0.12570469081401825
aF2.888261318206787
aF2.310884952545166
aF0.2646518349647522
aF0.24169385433197021
aF2.8653550148010254
aF0.9335649609565735
aF1.7531814575195312
aF-3.0615713596343994
aF-20.415353775024414
aF254.57955932617188
aF-2.731449842453003
aF46.95332336425781
aF2.888261556625366
aF2.310884952545166
aF0.2646518349647522
aF0.24169377982616425
aF2.8653550148010254
aF0.9335650205612183
aF1.684971809387207
aF-3.0394680500030518
aF-25.60398292541504
aF249.84103393554688
aF-2.4122848510742188
aF28.65032196044922
aF1.8173234462738037
aF-3.082941770553589
aF-15.226723670959473
aF259.3180847167969
aF-2.9123570919036865
aF65.2563247680664
aF0.08618141710758209
aF-1.6568596363067627
aF-22.84969711303711
aF1.9713897705078125
aF-0.7860873937606812
aF-22.818222045898438
aF-1.0342985391616821
aF-0.5446175932884216
aF-22.55269432067871
aF-37.232635498046875
aF-0.7945988774299622
aF-22.141464233398438
aF3.1415927410125732
aF3.1415927410125732
aF0.0
aF0.0
aF3.1415927410125732
aF0.0
aF0.7778001427650452
aF1.9293676614761353
aF0.8820786476135254
aF0.33057889342308044
aF1.2072025537490845
aF-0.33564093708992004
aF-0.2002359926700592
aF-0.9828172326087952
aF-0.2859111726284027
aF-0.19059772789478302
aF-0.29553353786468506
aF-0.9391098618507385
aF1.4913324117660522
aF-2.756720542907715
aF-0.3744222819805145
aF0.9243322610855103
aF-1.3766860961914062
aF-0.07360599935054779
aF1.6931231021881104
aF-3.0522234439849854
aF-21.47412872314453
aF239.6457061767578
aF-2.511751890182495
aF29.46219253540039
aF1.4913324117660522
aF-2.756720542907715
aF-0.37442222237586975
aF0.9243322610855103
aF-1.3766859769821167
aF-0.07360599935054779
aF1.7019802331924438
aF-3.066145658493042
aF-17.344274520874023
aF229.45037841796875
aF-2.6213314533233643
aF30.27406120300293
aF1.684971809387207
aF-3.0394680500030518
aF-25.60398292541504
aF249.84103393554688
aF-2.4122848510742188
aF28.65032196044922
aF-1.0342985391616821
aF-0.5446175932884216
aF-22.55269432067871
aF-37.232635498046875
aF-0.7945988774299622
aF-22.141464233398438
aF-1.563036322593689
aF-0.47561827301979065
aF-19.60289764404297
aF-38.05987548828125
aF-1.5557308197021484
aF-0.29534912109375
aF3.1415927410125732
aF3.1415927410125732
aF0.0
aF0.0
aF3.1415927410125732
aF0.0
aF0.7778001427650452
aF1.9293676614761353
aF0.8820786476135254
aF0.33057889342308044
aF1.2072025537490845
aF-0.33564093708992004
aF-0.786505937576294
aF-0.004896644968539476
aF-0.003466291120275855
aF-0.7078853845596313
aF-0.004907505586743355
aF-0.7063187956809998
aF0.7861416339874268
aF-2.4950785636901855
aF-0.4710893929004669
aF0.6241921782493591
aF-0.6472292542457581
aF-0.623264729976654
aF1.7259771823883057
aF-3.080793857574463
aF-13.671258926391602
aF224.58364868164062
aF-2.770498514175415
aF35.13356399536133
aF0.7861418724060059
aF-2.4950785636901855
aF-0.4710893929004669
aF0.6241922974586487
aF-0.6472293734550476
aF-0.6232645511627197
aF1.750846028327942
aF-3.096118927001953
aF-9.998242378234863
aF219.71690368652344
aF-2.8966145515441895
aF39.99306869506836
aF1.7019802331924438
aF-3.066145658493042
aF-17.344274520874023
aF229.45037841796875
aF-2.6213314533233643
aF30.27406120300293
aF-1.563036322593689
aF-0.47561827301979065
aF-19.60289764404297
aF-38.05987548828125
aF-1.5557308197021484
aF-0.29534912109375
aF-1.9728960990905762
aF-0.5514588356018066
aF-17.93770980834961
aF-29.161590576171875
aF-2.175705671310425
aF12.401565551757812
aF-1.8630423545837402
aF-0.5309581756591797
aF-18.370248794555664
aF-31.284225463867188
aF-2.044283151626587
aF9.412185668945312
aF-1.8009517192840576
aF-0.3948044180870056
aF-18.190181732177734
aF-43.65480041503906
aF-2.0830461978912354
aF10.2286376953125
aF-1.6750926971435547
aF0.2590261399745941
aF0.25483807921409607
aF-0.9617292284965515
aF1.9470160007476807
aF0.10067018866539001
aF1.6897404193878174
aF-3.129901885986328
aF-2.5008814334869385
aF213.9103546142578
aF-3.044074773788452
aF25.56403923034668
aF1.7212963104248047
aF-3.1361489295959473
aF-1.1880754232406616
aF218.24533081054688
aF-3.105710506439209
aF33.096168518066406
aF-1.2430286407470703
aF0.43121233582496643
aF3.2931771278381348
aF-7.157693386077881
aF0.934334933757782
aF-2.4338490962982178
aF3.1415927410125732
aF3.1415927410125732
aF0.0
aF0.0
aF3.1415927410125732
aF0.0
aF0.36396342515945435
aF1.768988013267517
aF0.8709592223167419
aF0.17491307854652405
aF1.085627555847168
aF-0.4591682553291321
aF2.7029731273651123
aF2.396196126937866
aF0.36496371030807495
aF0.3953956365585327
aF2.732973098754883
aF0.8428901433944702
aF-1.872422218322754
aF0.3498419225215912
aF0.32898563146591187
aF-0.9017026424407959
aF2.276874303817749
aF0.2805365324020386
aF1.858140468597412
aF3.080703020095825
aF14.342249870300293
aF235.2535858154297
aF2.9381508827209473
aF69.52278137207031
aF-1.872422218322754
aF0.3498419225215912
aF0.32898569107055664
aF-0.9017027616500854
aF2.27687406539917
aF0.2805365324020386
aF1.7964322566986084
aF3.1269400119781494
aF3.868010997772217
aF263.96197509765625
aF3.077841281890869
aF60.591068267822266
aF1.9338051080703735
aF3.0220155715942383
aF24.81648826599121
aF206.54519653320312
aF2.8352341651916504
aF78.45449829101562
aF2.8187813758850098
aF-3.076768398284912
aF-0.8691177368164062
aF13.388496398925781
aF-3.1198811531066895
aF40.02391052246094
aF0.17035987973213196
aF-2.5327517986297607
aF-2.7488861083984375
aF3.942779541015625
aF-0.11936642229557037
aF-22.91949462890625
aF3.1415927410125732
aF3.1415927410125732
aF0.0
aF0.0
aF3.1415927410125732
aF0.0
aF0.37545135617256165
aF1.7771891355514526
aF0.8684107065200806
aF0.18182285130023956
aF1.0824956893920898
aF-0.461306095123291
aF1.3967136144638062
aF-2.8475747108459473
aF-0.28578028082847595
aF0.9438113570213318
aF-1.0446138381958008
aF-0.16598129272460938
aF2.834944725036621
aF2.168700933456421
aF0.40520673990249634
aF0.2759721279144287
aF2.706407308578491
aF0.871577262878418
aF1.7300463914871216
aF-3.1220333576202393
aF-5.044837951660156
aF257.8917541503906
aF-3.020392656326294
aF41.42002487182617
aF2.8349449634552
aF2.168700933456421
aF0.40520671010017395
aF0.2759720981121063
aF2.706407308578491
aF0.8715772032737732
aF1.6589196920394897
aF-3.0862224102020264
aF-13.957686424255371
aF251.82151794433594
aF-2.5813119411468506
aF22.248979568481445
aF1.7964322566986084
aF3.1269400119781494
aF3.868010997772217
aF263.96197509765625
aF3.077841281890869
aF60.591068267822266
aF0.17035987973213196
aF-2.5327517986297607
aF-2.7488861083984375
aF3.942779541015625
aF-0.11936642229557037
aF-22.91949462890625
aF-1.0643188953399658
aF-0.23141930997371674
aF-9.318294525146484
aF-39.544456481933594
aF-0.4016800820827484
aF-21.93701171875
aF3.1415927410125732
aF3.1415927410125732
aF0.0
aF0.0
aF3.1415927410125732
aF0.0
aF0.37545135617256165
aF1.7771891355514526
aF0.8684107065200806
aF0.18182285130023956
aF1.0824956893920898
aF-0.461306095123291
aF-0.22847381234169006
aF-1.1217209100723267
aF-0.4253474175930023
aF-0.20498143136501312
aF-0.4495666027069092
aF-0.8815113306045532
aF1.466499924659729
aF-2.882566452026367
aF-0.25483807921409607
aF0.9617292284965515
aF-1.194576621055603
aF-0.10067018866539001
aF1.6688977479934692
aF-3.0971219539642334
aF-10.650732040405273
aF239.34146118164062
aF-2.7169458866119385
aF23.55534553527832
aF1.466499924659729
aF-2.882566452026367
aF-0.25483816862106323
aF0.9617292284965515
aF-1.194576621055603
aF-0.1006702408194542
aF1.6799505949020386
aF-3.1092326641082764
aF-7.343777656555176
aF226.8614044189453
aF-2.854375123977661
aF24.861711502075195
aF1.6589196920394897
aF-3.0862224102020264
aF-13.957686424255371
aF251.82151794433594
aF-2.5813119411468506
aF22.248979568481445
aF-1.0643188953399658
aF-0.23141930997371674
aF-9.318294525146484
aF-39.544456481933594
aF-0.4016800820827484
aF-21.93701171875
aF-1.6676664352416992
aF-0.21967817842960358
aF-9.140979766845703
aF-40.93925476074219
aF-1.9812825918197632
aF3.978240966796875
aF3.1415927410125732
aF3.1415927410125732
aF0.0
aF0.0
aF3.1415927410125732
aF0.0
aF0.37545135617256165
aF1.7771891355514526
aF0.8684107065200806
aF0.18182285130023956
aF1.0824956893920898
aF-0.461306095123291
aF-0.8481874465942383
aF-0.2534200847148895
aF-0.19069765508174896
aF-0.7363179922103882
aF-0.2857030928134918
aF-0.649207353591919
aF0.8227825164794922
aF-2.529339551925659
aF-0.4577087163925171
aF0.6517485976219177
aF-0.6478720307350159
aF-0.6047531962394714
aF1.7057663202285767
aF-3.1261439323425293
aF-3.4186713695526123
aF221.27230834960938
aF-3.0283052921295166
aF30.047805786132812
aF0.8227822184562683
aF-2.52933931350708
aF-0.45770877599716187
aF0.6517484188079834
aF-0.6478719711303711
aF-0.6047533750534058
aF1.7327255010604858
aF3.139244556427002
aF0.506434977054596
aF215.68319702148438
aF3.1272201538085938
aF35.23390197753906
aF1.6799505949020386
aF-3.1092326641082764
aF-7.343777656555176
aF226.8614044189453
aF-2.854375123977661
aF24.861711502075195
aF-1.6676664352416992
aF-0.21967817842960358
aF-9.140979766845703
aF-40.93925476074219
aF-1.9812825918197632
aF3.978240966796875
aF-2.095074415206909
aF-0.23335497081279755
aF-7.5154571533203125
aF-31.61939239501953
aF-2.751607656478882
aF18.28411865234375
aF-1.9934817552566528
aF-0.23068170249462128
aF-7.868553161621094
aF-33.50279998779297
aF-2.6603810787200928
aF15.069473266601562
aF-1.9705724716186523
aF-0.1779738813638687
aF-7.533847808837891
aF-41.88330841064453
aF-2.739116668701172
aF17.696929931640625
aF-1.7737054824829102
aF0.10712095350027084
aF0.10474707931280136
aF-0.9740962386131287
aF2.6599807739257812
aF0.20041102170944214
aF1.6917054653167725
aF3.0934035778045654
aF10.303007125854492
aF213.6380157470703
aF2.763744592666626
aF25.957406997680664
aF1.7267441749572754
aF3.083833932876587
aF12.61780071258545
aF218.2145233154297
aF2.789173126220703
aF34.30867385864258
aF-1.8076810836791992
aF0.5167616009712219
aF5.579334259033203
aF-9.818108558654785
aF1.9725220203399658
aF2.370262622833252
aF3.1415927410125732
aF3.1415927410125732
aF0.0
aF0.0
aF3.1415927410125732
aF0.0
aF0.021057480946183205
aF1.5821679830551147
aF0.8798718452453613
aF0.010006007738411427
aF1.0756851434707642
aF-0.4751056730747223
aF2.7080588340759277
aF2.284344434738159
aF0.4365585446357727
aF0.3779361844062805
aF2.650566339492798
aF0.8164440393447876
aF-1.9114543199539185
aF0.20006699860095978
aF0.18772897124290466
aF-0.9257775545120239
aF2.621976137161255
aF0.328167200088501
aF1.8373656272888184
aF3.0183796882629395
aF29.221385955810547
aF235.96034240722656
aF2.7158203125
aF64.43326568603516
aF-1.911454439163208
aF0.20006707310676575
aF0.18772904574871063
aF-0.9257775545120239
aF2.621976137161255
aF0.3281673491001129
aF1.7775824069976807
aF3.050938844680786
aF23.855117797851562
aF262.4238586425781
aF2.7326998710632324
aF55.05254364013672
aF1.9095537662506104
aF2.9779698848724365
aF34.58765411376953
aF209.496826171875
aF2.7033965587615967
aF73.8139877319336
aF2.8337888717651367
aF2.4511959552764893
aF10.26181411743164
aF12.423454284667969
aF2.8847975730895996
aF39.078826904296875
aF0.22748559713363647
aF1.7961643934249878
aF17.197608947753906
aF3.9427719116210938
aF0.7902377247810364
aF-17.031951904296875
aF3.1415927410125732
aF3.1415927410125732
aF0.0
aF0.0
aF3.1415927410125732
aF0.0
aF-0.004240195266902447
aF1.5685335397720337
aF0.882231593132019
aF-0.001996344653889537
aF1.0805848836898804
aF-0.47081148624420166
aF1.3248399496078491
aF-3.0106396675109863
aF-0.12671323120594025
aF0.9620868563652039
aF-0.4831693768501282
aF-0.2415214329957962
aF2.8306009769439697
aF2.1123011112213135
aF0.453443706035614
aF0.2727358639240265
aF2.65081524848938
aF0.8485304713249207
aF1.716723918914795
aF3.0847761631011963
aF14.609798431396484
aF256.863037109375
aF2.772346258163452
aF37.75175476074219
aF2.830601215362549
aF2.112300395965576
aF0.45344382524490356
aF0.2727355360984802
aF2.65081524848938
aF0.8485305309295654
aF1.6519973278045654
aF3.1202492713928223
aF5.364480018615723
aF251.30218505859375
aF2.8850626945495605
aF20.450963973999023
aF1.7775824069976807
aF3.050938844680786
aF23.855117797851562
aF262.4238586425781
aF2.7326998710632324
aF55.05254364013672
aF0.22748559713363647
aF1.7961643934249878
aF17.197608947753906
aF3.9427719116210938
aF0.7902377247810364
aF-17.031951904296875
aF-1.1382830142974854
aF0.24531050026416779
aF9.013614654541016
aF-36.00367736816406
aF0.4968970715999603
aF-16.621688842773438
aF3.1415927410125732
aF3.1415927410125732
aF0.0
aF0.0
aF3.1415927410125732
aF0.0
aF-0.004240195266902447
aF1.5685335397720337
aF0.882231593132019
aF-0.001996344653889537
aF1.0805848836898804
aF-0.47081148624420166
aF-0.2573540508747101
aF-1.1130619049072266
aF-0.45901578664779663
aF-0.2261250615119934
aF-0.49067485332489014
aF-0.8591693639755249
aF1.367887258529663
aF-3.0344717502593994
aF-0.10474707931280136
aF0.9740962386131287
aF-0.48161184787750244
aF-0.20041102170944214
aF1.6666755676269531
aF3.113612651824951
aF6.688645362854004
aF238.98809814453125
aF2.8584065437316895
aF22.98447036743164
aF1.3678871393203735
aF-3.0344717502593994
aF-0.10474705696105957
aF0.9740961790084839
aF-0.4816117286682129
aF-0.20041103661060333
aF1.6828999519348145
aF3.106257915496826
aF8.012810707092285
aF226.67401123046875
aF2.8373358249664307
aF25.517976760864258
aF1.6519973278045654
aF3.1202492713928223
aF5.364480018615723
aF251.30218505859375
aF2.8850626945495605
aF20.450963973999023
aF-1.1382830142974854
aF0.24531050026416779
aF9.013614654541016
aF-36.00367736816406
aF0.4968970715999603
aF-16.621688842773438
aF-1.796828031539917
aF0.13212506473064423
aF4.8011932373046875
aF-36.126548767089844
aF2.6175665855407715
aF8.307708740234375
aF3.1415927410125732
aF3.1415927410125732
aF0.0
aF0.0
aF3.1415927410125732
aF0.0
aF-0.004240195266902447
aF1.5685335397720337
aF0.882231593132019
aF-0.001996344653889537
aF1.0805848836898804
aF-0.47081148624420166
aF-0.9300460815429688
aF-0.38069477677345276
aF-0.3054961860179901
aF-0.7633233666419983
aF-0.49257028102874756
aF-0.5692183375358582
aF0.7641716003417969
aF-2.6352648735046387
aF-0.35824504494667053
aF0.6460134983062744
aF-0.48852187395095825
aF-0.6740378737449646
aF1.7112302780151367
aF3.0915937423706055
aF11.067304611206055
aF221.16592407226562
aF2.801373243331909
aF31.26500701904297
aF0.7641716599464417
aF-2.6352651119232178
aF-0.35824501514434814
aF0.6460135579109192
aF-0.48852187395095825
aF-0.6740378141403198
aF1.7407643795013428
aF3.0762035846710205
aF14.12179946899414
aF215.6578369140625
aF2.777095317840576
aF37.01203536987305
aF1.6828999519348145
aF3.106257915496826
aF8.012810707092285
aF226.67401123046875
aF2.8373358249664307
aF25.517976760864258
aF-1.796828031539917
aF0.13212506473064423
aF4.8011932373046875
aF-36.126548767089844
aF2.6175665855407715
aF8.307708740234375
aF-2.273054838180542
aF0.16964124143123627
aF4.48828125
aF-26.203201293945312
aF2.941861629486084
aF22.172012329101562
aF-2.1559767723083496
aF0.15601319074630737
aF4.492790222167969
aF-28.5634765625
aF2.9085209369659424
aF18.926101684570312
aF-2.083103656768799
aF0.10779965668916702
aF4.116722106933594
aF-38.04059600830078
aF2.9514896869659424
aF21.393722534179688
aF-1.6910459995269775
aF0.008496166206896305
aF0.008434716612100601
aF-0.9927434325218201
aF3.0713930130004883
aF0.11995578557252884
aF1.6654746532440186
aF3.0384631156921387
aF22.8515625
aF220.7952117919922
aF2.3132176399230957
aF20.967206954956055
aF1.70490562915802
aF3.025728225708008
aF26.320371627807617
aF226.1476593017578
aF2.4298095703125
aF30.51164436340332
aF-1.6936657428741455
aF0.4763917326927185
aF3.994192361831665
aF-7.740184783935547
aF1.8056879043579102
aF0.9558466672897339
aF3.1415927410125732
aF3.1415927410125732
aF0.0
aF0.0
aF3.1415927410125732
aF0.0
aF-0.2769010663032532
aF1.3763427734375
aF0.8113776445388794
aF-0.1597944051027298
aF0.9648075103759766
aF-0.5622562170028687
aF2.774505138397217
aF2.034621000289917
aF0.5829551219940186
aF0.2916066348552704
aF2.4862353801727295
aF0.7583725452423096
aF-1.9071614742279053
aF0.045323725789785385
aF0.04277395084500313
aF-0.9430966973304749
aF3.012598991394043
aF0.3297560513019562
aF1.8047274351119995
aF2.962655782699585
aF42.15814971923828
aF233.08367919921875
aF2.492339611053467
aF55.542388916015625
aF-1.9071613550186157
aF0.045323699712753296
aF0.04277392849326134
aF-0.9430967569351196
aF3.012598991394043
aF0.3297559320926666
aF1.7502766847610474
aF2.983919620513916
aF41.026309967041016
aF258.0389709472656
aF2.4220168590545654
aF46.81671142578125
aF1.870298147201538
aF2.9365200996398926
aF43.28999328613281
aF208.1283721923828
aF2.548815965652466
aF64.26806640625
aF3.0064995288848877
aF1.8302092552185059
aF21.107765197753906
aF5.6018524169921875
aF2.6682724952697754
aF41.21405029296875
aF-7.955943033266522e-07
aF1.5707961320877075
aF34.83197784423828
aF-7.62939453125e-06
aF1.3021429777145386
aF-9.589553833007812
aF3.1415927410125732
aF3.1415927410125732
aF0.0
aF0.0
aF3.1415927410125732
aF0.0
aF-0.10888266563415527
aF1.490330457687378
aF0.8030427098274231
aF-0.06475738435983658
aF0.9352235794067383
aF-0.5923925042152405
aF1.401087999343872
aF-3.0958573818206787
aF-0.0450638048350811
aF0.9846327900886536
aF-0.2609948217868805
aF-0.16872328519821167
aF2.938551425933838
aF1.8372501134872437
aF0.5942151546478271
aF0.16218747198581696
aF2.4953534603118896
aF0.7877839803695679
aF1.7035359144210815
aF3.019125461578369
aF31.438148498535156
aF255.42193603515625
aF2.396862745285034
aF34.10515213012695
aF2.938551187515259
aF1.8372504711151123
aF0.5942151546478271
aF0.16218768060207367
aF2.4953534603118896
aF0.7877839207649231
aF1.6552201509475708
aF3.0553767681121826
aF21.849985122680664
aF252.80490112304688
aF2.3456408977508545
aF21.39359474182129
aF1.7502766847610474
aF2.983919620513916
aF41.026309967041016
aF258.0389709472656
aF2.4220168590545654
aF46.81671142578125
aF-7.955943033266522e-07
aF1.5707961320877075
aF34.83197784423828
aF-7.62939453125e-06
aF1.3021429777145386
aF-9.589553833007812
aF-1.1491159200668335
aF0.6761266589164734
aF24.251388549804688
aF-30.228271484375
aF1.060957670211792
aF-13.560089111328125
aF3.1415927410125732
aF3.1415927410125732
aF0.0
aF0.0
aF3.1415927410125732
aF0.0
aF-0.10888266563415527
aF1.490330457687378
aF0.8030427098274231
aF-0.06475738435983658
aF0.9352235794067383
aF-0.5923925042152405
aF-0.12650816142559052
aF-1.402357578277588
aF-0.5958617329597473
aF-0.10132628679275513
aF-0.6421821713447571
aF-0.7966691851615906
aF1.4505467414855957
aF-3.13309645652771
aF-0.008434716612100601
aF0.9927434325218201
aF-0.07019966840744019
aF-0.11995578557252884
aF1.6626250743865967
aF3.051955223083496
aF21.925270080566406
aF243.94418334960938
aF2.3683362007141113
aF22.464258193969727
aF1.4505466222763062
aF-3.13309645652771
aF-0.008434729650616646
aF0.9927433729171753
aF-0.07019974291324615
aF-0.11995585262775421
aF1.6705769300460815
aF3.048278331756592
aF22.000553131103516
aF235.08348083496094
aF2.3898777961730957
aF23.534921646118164
aF1.6552201509475708
aF3.0553767681121826
aF21.849985122680664
aF252.80490112304688
aF2.3456408977508545
aF21.39359474182129
aF-1.1491159200668335
aF0.6761266589164734
aF24.251388549804688
aF-30.228271484375
aF1.060957670211792
aF-13.560089111328125
aF-1.684702754020691
aF0.5575928688049316
aF20.084197998046875
aF-32.20679473876953
aF1.7522319555282593
aF3.68450927734375
aF3.1415927410125732
aF3.1415927410125732
aF0.0
aF0.0
aF3.1415927410125732
aF0.0
aF-0.10888266563415527
aF1.490330457687378
aF0.8030427098274231
aF-0.06475738435983658
aF0.9352235794067383
aF-0.5923925042152405
aF-0.8746242523193359
aF-0.6088253259658813
aF-0.4716920256614685
aF-0.6765792965888977
aF-0.695232629776001
aF-0.5654618144035339
aF0.9069100022315979
aF-2.680758237838745
aF-0.36418265104293823
aF0.7335168123245239
aF-0.5654807090759277
aF-0.5738676190376282
aF1.692508339881897
aF3.0335817337036133
aF24.865161895751953
aF229.31375122070312
aF2.416289806365967
aF28.04888153076172
aF0.9069100618362427
aF-2.680758237838745
aF-0.36418262124061584
aF0.7335168719291687
aF-0.5654807090759277
aF-0.5738675594329834
aF1.7154452800750732
aF3.018177032470703
aF27.729768753051758
aF223.54400634765625
aF2.4361836910247803
aF32.56283950805664
aF1.6705769300460815
aF3.048278331756592
aF22.000553131103516
aF235.08348083496094
aF2.3898777961730957
aF23.534921646118164
aF-1.684702754020691
aF0.5575928688049316
aF20.084197998046875
aF-32.20679473876953
aF1.7522319555282593
aF3.68450927734375
aF-2.1869592666625977
aF0.6811396479606628
aF20.10991668701172
aF-24.810272216796875
aF2.2888591289520264
aF17.568954467773438
aF-2.0682594776153564
aF0.6460859775543213
aF20.000843048095703
aF-26.524673461914062
aF2.194906234741211
aF14.403244018554688
aF-1.9980103969573975
aF0.463217556476593
aF18.785263061523438
aF-37.61095428466797
aF2.3099215030670166
aF17.122512817382812
a.