(lp0
F3.1415927410125732
aF3.1415927410125732
aF0.0
aF0.0
aF3.1415927410125732
aF0.0
aF0.517255425453186
aF1.7055983543395996
aF0.9643856883049011
aF0.13079434633255005
aF1.3367760181427002
aF-0.22989805042743683
aF2.344261407852173
aF3.044755458831787
aF0.06933652609586716
aF0.7137722373008728
aF3.042431592941284
aF0.6969373226165771
aF-2.349777936935425
aF0.3552352786064148
aF0.25525030493736267
aF-0.6880567073822021
aF2.782151937484741
aF0.6792829036712646
aF2.659662961959839
aF2.3247158527374268
aF86.69580841064453
aF81.40254211425781
aF2.633330821990967
aF155.625732421875
aF0.7918147444725037
aF-2.7863574028015137
aF-0.25525030493736267
aF0.6880567073822021
aF-0.3594406247138977
aF-0.6792829036712646
aF1.9804284572601318
aF2.820038080215454
aF55.304412841796875
aF166.0216827392578
aF2.487171173095703
aF72.08560943603516
aF3.1415927410125732
aF3.1415927410125732
aF0.0
aF0.0
aF3.1415927410125732
aF0.0
aF0.5960931181907654
aF1.788442850112915
aF0.9304159283638
aF0.2057611048221588
aF1.2556791305541992
aF-0.3032960891723633
aF2.9064688682556152
aF2.2910315990448
aF0.25660082697868347
aF0.22516322135925293
aF2.8750853538513184
aF0.9399242401123047
aF-1.7338730096817017
aF0.26816675066947937
aF0.26169097423553467
aF-0.9523465037345886
aF2.110322952270508
aF0.15669699013233185
aF0.4861876368522644
aF1.4077197313308716
aF-2.8734259605407715
aF-0.26169097423553467
aF0.9523465037345886
aF-1.0312696695327759
aF-0.15669699013233185
aF1.0
aF-0.23512384295463562
aF-0.8505609631538391
aF-0.25660082697868347
aF-0.22516322135925293
aF-0.2665073573589325
aF-0.9399242401123047
aF1.8605862855911255
aF2.9770560264587402
aF34.960182189941406
aF210.5556182861328
aF2.6335208415985107
aF62.78432083129883
aF-0.6128297448158264
aF-0.47986868023872375
aF-11.620616912841797
aF-22.328277587890625
aF-0.35080811381340027
aF-31.755128860473633
aF0.463438481092453
aF1.6896982192993164
aF3.0160446166992188
aF27.137819290161133
aF215.01791381835938
aF2.3287408351898193
aF25.687211990356445
aF33.76841354370117
aF1.8397847414016724
aF2.980666399002075
aF34.90730285644531
aF215.03907775878906
aF2.6094062328338623
aF59.279685974121094
aF1.9804284572601318
aF2.820038080215454
aF55.304412841796875
aF166.0216827392578
aF2.487171173095703
aF72.08560943603516
aF3.061762809753418
aF2.0863890647888184
aF6.9441986083984375
aF3.9354476928710938
aF3.001357316970825
aF49.19313049316406
aF-1.245219111442566
aF0.13552838563919067
aF4.891517639160156
aF-35.870948791503906
aF0.38389313220977783
aF-12.109695434570312
aF1.0676122903823853
aF-2.540127754211426
aF-0.5152674913406372
aF0.7508020401000977
aF-0.894801676273346
aF-0.41327446699142456
aF1.7233574390411377
aF-3.0965051651000977
aF-10.365470886230469
aF229.74049377441406
aF-2.8561646938323975
aF35.323951721191406
aF1.7103182077407837
aF-3.0886645317077637
aF-11.808839797973633
aF222.90240478515625
aF-2.780858278274536
aF31.303136825561523
aF-0.7866300344467163
aF-0.5911231637001038
aF-14.704591751098633
aF-21.908451080322266
aF-0.5922637581825256
aF-21.85453987121582
aF3.1415927410125732
aF3.1415927410125732
aF0.0
aF0.0
aF3.1415927410125732
aF0.0
aF2.54229736328125
aF2.275402545928955
aF0.5528432130813599
aF0.470023512840271
aF2.464740753173828
aF0.6880714297294617
aF-2.5999462604522705
aF-0.8835281133651733
aF-0.5319089293479919
aF-0.4365662634372711
aF-2.5090153217315674
aF0.7255913019180298
aF-1.5820808410644531
aF0.6963969469070435
aF0.6414337158203125
aF-0.7671296000480652
aF1.5842918157577515
aF0.008657013066112995
aF2.0002143383026123
aF2.9545228481292725
aF29.43233299255371
aF155.49388122558594
aF2.7496252059936523
aF71.2032470703125
aF3.1415927410125732
aF3.1415927410125732
aF0.0
aF0.0
aF3.1415927410125732
aF0.0
aF2.0002143383026123
aF2.9545228481292725
aF29.43233299255371
aF155.49388122558594
aF2.7496252059936523
aF71.2032470703125
aF2.0002143383026123
aF2.9545228481292725
aF29.43233299255371
aF155.49388122558594
aF2.7496252059936523
aF71.2032470703125
aF-3.029219150543213
aF-1.26994788646698
aF-19.02619171142578
aF-5.9031829833984375
aF-2.792750835418701
aF52.31048583984375
aF-3.029219150543213
aF-1.26994788646698
aF-19.02619171142578
aF-5.9031829833984375
aF-2.792750835418701
aF52.31048583984375
aF3.1415927410125732
aF3.1415927410125732
aF0.0
aF0.0
aF3.1415927410125732
aF0.0
aF2.381319284439087
aF2.591158866882324
aF0.3895128071308136
aF0.6346935629844666
aF2.613309383392334
aF0.6674157977104187
aF-2.7585408687591553
aF-1.2065361738204956
aF-0.7000278234481812
aF-0.2669026553630829
aF-2.328555107116699
aF0.6623624563217163
aF-2.009584665298462
aF0.6899932026863098
aF0.5985322594642639
aF-0.7252082824707031
aF2.087827444076538
aF0.34034112095832825
aF1.9243125915527344
aF3.049844980239868
aF15.823469161987305
aF171.9829864501953
aF2.8972480297088623
aF63.46488952636719
aF-2.009584665298462
aF0.689993143081665
aF0.5985322594642639
aF-0.7252083420753479
aF2.087827205657959
aF0.34034109115600586
aF1.8582807779312134
aF3.12984299659729
aF2.2146058082580566
aF188.4720916748047
aF3.1018729209899902
aF55.72653579711914
aF2.0002143383026123
aF2.9545228481292725
aF29.43233299255371
aF155.49388122558594
aF2.7496252059936523
aF71.2032470703125
aF-3.029219150543213
aF-1.26994788646698
aF-19.02619171142578
aF-5.9031829833984375
aF-2.792750835418701
aF52.31048583984375
aF-2.0870161056518555
aF-1.0239920616149902
aF-32.870338439941406
aF-20.00872802734375
aF-1.9034380912780762
aF11.35601806640625
aF3.1415927410125732
aF3.1415927410125732
aF0.0
aF0.0
aF3.1415927410125732
aF0.0
aF2.381319284439087
aF2.591158866882324
aF0.3895128071308136
aF0.6346935629844666
aF2.613309383392334
aF0.6674157977104187
aF-2.854470729827881
aF-1.3356155157089233
aF-0.7633997797966003
aF-0.18292196094989777
aF-2.2524983882904053
aF0.6194839477539062
aF-2.0739803314208984
aF0.6014648675918579
aF0.5152674913406372
aF-0.7508020401000977
aF2.246790885925293
aF0.41327446699142456
aF1.8123635053634644
aF-3.1126816272735596
aF-5.787635803222656
aF200.13226318359375
aF-3.0247507095336914
aF49.30827331542969
aF-2.0739800930023193
aF0.601464569568634
aF0.5152672529220581
aF-0.7508021593093872
aF2.246791124343872
aF0.4132743775844574
aF1.7706037759780884
aF-3.0765740871429443
aF-13.789877891540527
aF211.79241943359375
aF-2.8305139541625977
aF42.89000701904297
aF1.8582807779312134
aF3.12984299659729
aF2.2146058082580566
aF188.4720916748047
aF3.1018729209899902
aF55.72653579711914
aF-2.0870161056518555
aF-1.0239920616149902
aF-32.870338439941406
aF-20.00872802734375
aF-1.9034380912780762
aF11.35601806640625
aF-1.0669310092926025
aF-0.9011578559875488
aF-39.069480895996094
aF-30.929977416992188
aF-1.159250020980835
aF-17.052688598632812
aF3.1415927410125732
aF3.1415927410125732
aF0.0
aF0.0
aF3.1415927410125732
aF0.0
aF2.381319284439087
aF2.591158866882324
aF0.3895128071308136
aF0.6346935629844666
aF2.613309383392334
aF0.6674157977104187
aF1.9663550853729248
aF-1.9738943576812744
aF-0.9077531695365906
aF0.3871111273765564
aF-1.7470208406448364
aF0.16164518892765045
aF-2.3978099822998047
aF-0.22882474958896637
aF-0.15576893091201782
aF-0.6688116788864136
aF-2.930501699447632
aF0.7269298434257507
aF1.7299561500549316
aF-3.0862443447113037
aF-12.129358291625977
aF218.92205810546875
aF-2.809232234954834
aF35.14082717895508
aF-2.397810220718384
aF-0.22882479429244995
aF-0.1557689607143402
aF-0.6688116788864136
aF-2.930501699447632
aF0.7269299030303955
aF1.691382646560669
aF-3.0953140258789062
aF-10.46883773803711
aF226.0516815185547
aF-2.7765326499938965
aF27.391647338867188
aF1.7706037759780884
aF-3.0765740871429443
aF-13.789877891540527
aF211.79241943359375
aF-2.8305139541625977
aF42.89000701904297
aF-1.0669310092926025
aF-0.9011578559875488
aF-39.069480895996094
aF-30.929977416992188
aF-1.159250020980835
aF-17.052688598632812
aF-0.910277783870697
aF-0.5999692678451538
aF-28.344942092895508
aF-41.434417724609375
aF-0.7219362258911133
aF-32.19189453125
aF-0.9302318692207336
aF-0.6806414127349854
aF-31.426036834716797
aF-38.81085968017578
aF-0.8267220854759216
aF-28.930450439453125
aF-0.7659593224525452
aF-0.7342512607574463
aF-29.895591735839844
aF-33.12153625488281
aF-0.714952290058136
aF-34.43492126464844
aF-1.5000998973846436
aF0.3440583050251007
aF0.3365632891654968
aF-0.9393086433410645
aF1.3756760358810425
aF-0.06651660054922104
aF1.7673835754394531
aF3.054309129714966
aF16.76120948791504
aF191.5440216064453
aF2.727609395980835
aF38.14781951904297
aF1.7549976110458374
aF3.0791826248168945
aF11.761585235595703
aF188.21173095703125
aF2.81797456741333
aF35.066341400146484
aF-0.6224262714385986
aF-0.6115555763244629
aF-15.623476028442383
aF-22.279884338378906
aF-0.466198205947876
aF-31.048717498779297
aF3.1415927410125732
aF3.1415927410125732
aF0.0
aF0.0
aF3.1415927410125732
aF0.0
aF0.839760959148407
aF1.964492917060852
aF0.8732690811157227
aF0.3627408742904663
aF1.2142118215560913
aF-0.3253001570701599
aF2.7694621086120605
aF2.6472387313842773
aF0.1923200935125351
aF0.3568132519721985
aF2.9342384338378906
aF0.9141647815704346
aF-1.844652533531189
aF0.4795394837856293
aF0.44767633080482483
aF-0.8608735799789429
aF2.0660791397094727
aF0.24183163046836853
aF1.9357404708862305
aF3.025190591812134
aF23.286502838134766
aF199.14808654785156
aF2.844590663909912
aF76.08613586425781
aF-1.844652771949768
aF0.47953954339027405
aF0.447676420211792
aF-0.8608735799789429
aF2.0660791397094727
aF0.24183174967765808
aF1.8605759143829346
aF3.105271577835083
aF8.284710884094238
aF227.9962615966797
aF3.020324945449829
aF67.98226928710938
aF2.0299243927001953
aF2.9204413890838623
aF38.28829574584961
aF170.29991149902344
aF2.7147672176361084
aF84.19000244140625
aF2.868756055831909
aF-2.3659791946411133
aF-11.678794860839844
aF11.90960693359375
aF-2.8737921714782715
aF42.562530517578125
aF0.08618104457855225
aF-1.6568591594696045
aF-22.807205200195312
aF1.96771240234375
aF-0.7860880494117737
aF-22.7757568359375
aF3.1415927410125732
aF3.1415927410125732
aF0.0
aF0.0
aF3.1415927410125732
aF0.0
aF0.8171461820602417
aF1.937273621559143
aF0.8849038481712341
aF0.3396403193473816
aF1.2250747680664062
aF-0.31873130798339844
aF1.4151701927185059
aF-2.726811408996582
aF-0.39889848232269287
aF0.9059129357337952
aF-1.2285078763961792
aF-0.14213299751281738
aF2.8779892921447754
aF2.3814163208007812
aF0.24046872556209564
aF0.25291547179222107
aF2.8904101848602295
aF0.9371278285980225
aF1.7897968292236328
aF3.1255481243133545
aF3.578972816467285
aF223.0469512939453
aF3.0696237087249756
aF49.643592834472656
aF2.8779890537261963
aF2.3814165592193604
aF0.24046875536441803
aF0.2529155910015106
aF2.8904101848602295
aF0.9371278882026672
aF1.7133588790893555
aF-3.1364264488220215
aF-1.126765251159668
aF218.09764099121094
aF-3.1056149005889893
aF31.304920196533203
aF1.8605759143829346
aF3.105271577835083
aF8.284710884094238
aF227.9962615966797
aF3.020324945449829
aF67.98226928710938
aF0.08618104457855225
aF-1.6568591594696045
aF-22.807205200195312
aF1.96771240234375
aF-0.7860880494117737
aF-22.7757568359375
aF-1.0449714660644531
aF-0.544101357460022
aF-22.4764404296875
aF-37.15000915527344
aF-0.8062298893928528
aF-21.558975219726562
aF3.1415927410125732
aF3.1415927410125732
aF0.0
aF0.0
aF3.1415927410125732
aF0.0
aF0.8171461820602417
aF1.937273621559143
aF0.8849038481712341
aF0.3396403193473816
aF1.2250747680664062
aF-0.31873130798339844
aF-0.051157910376787186
aF-1.4215551614761353
aF-0.3219788074493408
aF-0.048412468284368515
aF-0.32821813225746155
aF-0.9455082416534424
aF1.6414927244186401
aF-2.797534465789795
aF-0.3365632891654968
aF0.9393086433410645
aF-1.7659165859222412
aF0.06651660054922104
aF1.7169036865234375
aF3.1291816234588623
aF2.578601598739624
aF207.75640869140625
aF3.057448387145996
aF30.57261085510254
aF1.6414927244186401
aF-2.797534227371216
aF-0.336563378572464
aF0.9393085241317749
aF-1.7659165859222412
aF0.06651663035154343
aF1.7208157777786255
aF3.109772205352783
aF6.283968448638916
aF197.4151611328125
aF2.9340386390686035
aF29.840301513671875
aF1.7133588790893555
aF-3.1364264488220215
aF-1.126765251159668
aF218.09764099121094
aF-3.1056149005889893
aF31.304920196533203
aF-1.0449714660644531
aF-0.544101357460022
aF-22.4764404296875
aF-37.15000915527344
aF-0.8062298893928528
aF-21.558975219726562
aF-1.567107915878296
aF-0.43916821479797363
aF-19.39281463623047
aF-41.28196716308594
aF-1.562944769859314
aF-0.1522674560546875
aF3.1415927410125732
aF3.1415927410125732
aF0.0
aF0.0
aF3.1415927410125732
aF0.0
aF0.8171461820602417
aF1.937273621559143
aF0.8849038481712341
aF0.3396403193473816
aF1.2250747680664062
aF-0.31873130798339844
aF-0.581888735294342
aF-0.1622495949268341
aF-0.0896017923951149
aF-0.5473921298980713
aF-0.10727258026599884
aF-0.8320657014846802
aF1.035156011581421
aF-2.6029441356658936
aF-0.4570740759372711
aF0.7648570537567139
aF-0.7888196110725403
aF-0.4539570212364197
aF1.7433687448501587
aF3.090238332748413
aF9.841079711914062
aF191.4627685546875
aF2.854839563369751
aF33.37315368652344
aF1.0351557731628418
aF-2.6029438972473145
aF-0.4570741355419159
aF0.7648568749427795
aF-0.7888194918632507
aF-0.4539571702480316
aF1.7671754360198975
aF3.0694944858551025
aF13.398191452026367
aF185.51039123535156
aF2.7933523654937744
aF36.906009674072266
aF1.7208157777786255
aF3.109772205352783
aF6.283968448638916
aF197.4151611328125
aF2.9340386390686035
aF29.840301513671875
aF-1.567107915878296
aF-0.43916821479797363
aF-19.39281463623047
aF-41.28196716308594
aF-1.562944769859314
aF-0.1522674560546875
aF-1.9502291679382324
aF-0.4550078809261322
aF-17.366168975830078
aF-35.49574279785156
aF-2.254640579223633
aF14.15411376953125
aF-1.8561474084854126
aF-0.4474656879901886
aF-17.775096893310547
aF-37.03660583496094
aF-2.119443416595459
aF10.864944458007812
aF-1.8579775094985962
aF-0.3946421444416046
aF-13.372314453125
aF-32.107025146484375
aF-2.1876213550567627
aF9.482666015625
aF-1.594528079032898
aF0.2206573486328125
aF0.21881240606307983
aF-0.9754921793937683
aF1.6762229204177856
aF0.023154504597187042
aF1.755905270576477
aF3.0046677589416504
aF25.774288177490234
aF187.05899047851562
aF2.507219076156616
aF35.02727508544922
aF1.7429548501968384
aF3.024012565612793
aF21.743440628051758
aF184.07164001464844
aF2.5448620319366455
aF32.0063362121582
aF-0.6582504510879517
aF-0.5633634328842163
aF-13.513072967529297
aF-21.393463134765625
aF-0.454368531703949
aF-27.664962768554688
aF3.1415927410125732
aF3.1415927410125732
aF0.0
aF0.0
aF3.1415927410125732
aF0.0
aF0.381772518157959
aF1.7691848278045654
aF0.8800562024116516
aF0.17692020535469055
aF1.1065548658370972
aF-0.4406816065311432
aF2.708021402359009
aF2.4195995330810547
aF0.346969872713089
aF0.3940151631832123
aF2.754487991333008
aF0.8510957360267639
aF-1.8772337436676025
aF0.34508609771728516
aF0.3242112696170807
aF-0.9019153118133545
aF2.2925617694854736
aF0.28536951541900635
aF1.9135662317276
aF2.958693504333496
aF37.7335319519043
aF204.00213623046875
aF2.663395643234253
aF72.79947662353516
aF-1.8772337436676025
aF0.34508606791496277
aF0.3242112398147583
aF-0.9019152522087097
aF2.2925617694854736
aF0.28536948561668396
aF1.8381562232971191
aF3.0242369174957275
aF27.430500030517578
aF232.66387939453125
aF2.7351467609405518
aF63.73078536987305
aF2.0076231956481934
aF2.874191999435425
aF48.036563873291016
aF175.3403778076172
aF2.610969066619873
aF81.8681640625
aF2.8187811374664307
aF-3.076767921447754
aF-0.8675079345703125
aF13.363601684570312
aF-3.1198809146881104
aF39.949462890625
aF0.17035998404026031
aF-2.532750368118286
aF-2.7437820434570312
aF3.9354476928710938
aF-0.11936681717634201
aF-22.876861572265625
aF3.1415927410125732
aF3.1415927410125732
aF0.0
aF0.0
aF3.1415927410125732
aF0.0
aF0.3972877562046051
aF1.779990553855896
aF0.8766987919807434
aF0.186123326420784
aF1.1023930311203003
aF-0.4435734450817108
aF1.36421537399292
aF-2.8334014415740967
aF-0.2974624037742615
aF0.9344339370727539
aF-0.9885839223861694
aF-0.19582995772361755
aF2.8074393272399902
aF2.247465133666992
aF0.378041535615921
aF0.3036302924156189
aF2.733593702316284
aF0.8745817542076111
aF1.7653392553329468
aF3.0571441650390625
aF19.130640029907227
aF225.99771118164062
aF2.7358171939849854
aF44.529441833496094
aF2.8074395656585693
aF2.247464895248413
aF0.378041535615921
aF0.3036302328109741
aF2.733593702316284
aF0.8745817542076111
aF1.6857656240463257
aF3.092251777648926
aF10.830780029296875
aF219.33154296875
aF2.7375056743621826
aF25.328094482421875
aF1.8381562232971191
aF3.0242369174957275
aF27.430500030517578
aF232.66387939453125
aF2.7351467609405518
aF63.73078536987305
aF0.17035998404026031
aF-2.532750368118286
aF-2.7437820434570312
aF3.9354476928710938
aF-0.11936681717634201
aF-22.876861572265625
aF-1.0904351472854614
aF-0.23129822313785553
aF-9.284313201904297
aF-39.421630859375
aF-0.4244992136955261
aF-20.541427612304688
aF3.1415927410125732
aF3.1415927410125732
aF0.0
aF0.0
aF3.1415927410125732
aF0.0
aF0.3972877562046051
aF1.779990553855896
aF0.8766987919807434
aF0.186123326420784
aF1.1023930311203003
aF-0.4435734450817108
aF-0.1302482783794403
aF-1.3034050464630127
aF-0.42839282751083374
aF-0.11735889315605164
aF-0.44601500034332275
aF-0.8959388732910156
aF1.5470645427703857
aF-2.9209353923797607
aF-0.21881240606307983
aF0.9754921793937683
aF-1.465369701385498
aF-0.023154504597187042
aF1.6941553354263306
aF3.0755774974823
aF13.664958000183105
aF206.69644165039062
aF2.65173602104187
aF25.62800407409668
aF1.5470645427703857
aF-2.9209353923797607
aF-0.21881237626075745
aF0.9754921197891235
aF-1.4653698205947876
aF-0.0231544841080904
aF1.7036164999008179
aF3.056776523590088
aF16.499135971069336
aF194.0613250732422
aF2.574875593185425
aF25.927913665771484
aF1.6857656240463257
aF3.092251777648926
aF10.830780029296875
aF219.33154296875
aF2.7375056743621826
aF25.328094482421875
aF-1.0904351472854614
aF-0.23129822313785553
aF-9.284313201904297
aF-39.421630859375
aF-0.4244992136955261
aF-20.541427612304688
aF-1.688639760017395
aF-0.21458880603313446
aF-9.391937255859375
aF-43.09326171875
aF-2.068420171737671
aF5.101898193359375
aF3.1415927410125732
aF3.1415927410125732
aF0.0
aF0.0
aF3.1415927410125732
aF0.0
aF0.3972877562046051
aF1.779990553855896
aF0.8766987919807434
aF0.186123326420784
aF1.1023930311203003
aF-0.4435734450817108
aF-0.704211950302124
aF-0.3660150468349457
aF-0.24084720015525818
aF-0.6283749938011169
aF-0.3147805631160736
aF-0.739687442779541
aF0.980483889579773
aF-2.637754440307617
aF-0.41640353202819824
aF0.7553164958953857
aF-0.6885020136833191
aF-0.5060682892799377
aF1.7307209968566895
aF3.035047769546509
aF20.063385009765625
aF187.5961151123047
aF2.5561044216156006
aF30.25965690612793
aF0.9804840087890625
aF-2.637754440307617
aF-0.41640350222587585
aF0.7553164958953857
aF-0.6885020732879639
aF-0.5060681700706482
aF1.7594987154006958
aF3.0118799209594727
aF23.627634048461914
aF181.1309051513672
aF2.5423338413238525
aF34.591400146484375
aF1.7036164999008179
aF3.056776523590088
aF16.499135971069336
aF194.0613250732422
aF2.574875593185425
aF25.927913665771484
aF-1.688639760017395
aF-0.21458880603313446
aF-9.391937255859375
aF-43.09326171875
aF-2.068420171737671
aF5.101898193359375
aF-2.0909698009490967
aF-0.21973775327205658
aF-8.047649383544922
aF-36.03251647949219
aF-2.7698044776916504
aF20.639144897460938
aF-1.9873934984207153
aF-0.21628142893314362
aF-8.411605834960938
aF-38.28362274169922
aF-2.680716037750244
aF16.940399169921875
aF-2.004488945007324
aF-0.14605407416820526
aF-4.962795257568359
aF-33.737205505371094
aF-2.8340258598327637
aF15.623626708984375
aF-1.6623948812484741
aF0.06574825197458267
aF0.06542664021253586
aF-0.9936741590499878
aF2.5196726322174072
aF0.09127454459667206
aF1.7684342861175537
aF2.9318056106567383
aF39.7642936706543
aF186.7571258544922
aF2.3255443572998047
aF37.39849853515625
aF1.7494747638702393
aF2.952686071395874
aF35.298248291015625
aF184.62753295898438
aF2.327740430831909
aF33.34456253051758
aF-0.6097220778465271
aF-0.5394982099533081
aF-12.976133346557617
aF-21.672121047973633
aF-0.39612114429473877
aF-31.026424407958984
aF3.1415927410125732
aF3.1415927410125732
aF0.0
aF0.0
aF3.1415927410125732
aF0.0
aF0.02639225870370865
aF1.5843517780303955
aF0.8894975185394287
aF0.012058278545737267
aF1.0963859558105469
aF-0.4567808508872986
aF2.7137651443481445
aF2.3029396533966064
aF0.4191175699234009
aF0.37669655680656433
aF2.672086238861084
aF0.8260993361473083
aF-1.9130640029907227
aF0.19404806196689606
aF0.1820291131734848
aF-0.9262582063674927
aF2.637540817260742
aF0.3300168216228485
aF1.8915966749191284
aF2.889721155166626
aF52.686012268066406
aF204.7359161376953
aF2.482619047164917
aF68.02922821044922
aF-1.9130640029907227
aF0.19404801726341248
aF0.18202906847000122
aF-0.9262582063674927
aF2.6375410556793213
aF0.3300168514251709
aF1.8191198110580444
aF2.9389634132385254
aF47.49235916137695
aF231.16392517089844
aF2.4606223106384277
aF58.61318588256836
aF1.9805467128753662
aF2.8277180194854736
aF57.879669189453125
aF178.3079071044922
aF2.499781847000122
aF77.44527435302734
aF2.833789110183716
aF2.4511961936950684
aF10.242721557617188
aF12.400344848632812
aF2.8847978115081787
aF39.00614929199219
aF0.2274852693080902
aF1.7961645126342773
aF17.165618896484375
aF3.9354400634765625
aF0.7902366518974304
aF-17.00030517578125
aF3.1415927410125732
aF3.1415927410125732
aF0.0
aF0.0
aF3.1415927410125732
aF0.0
aF0.03578997775912285
aF1.5892614126205444
aF0.8886323571205139
aF0.016410503536462784
aF1.0946154594421387
aF-0.458326518535614
aF1.3245848417282104
aF-2.9945766925811768
aF-0.14216004312038422
aF0.9599927067756653
aF-0.5324772596359253
aF-0.24125607311725616
aF2.8257393836975098
aF2.1408963203430176
aF0.4360309839248657
aF0.2795436680316925
aF2.6701903343200684
aF0.855413556098938
aF1.7515472173690796
aF2.9719619750976562
aF38.61860656738281
aF225.47488403320312
aF2.388578414916992
aF41.204498291015625
aF2.8257393836975098
aF2.1408963203430176
aF0.4360309839248657
aF0.2795437276363373
aF2.6701903343200684
aF0.855413556098938
aF1.6786444187164307
aF3.0070743560791016
aF29.744855880737305
aF219.78582763671875
aF2.2455358505249023
aF23.795812606811523
aF1.8191198110580444
aF2.9389634132385254
aF47.49235916137695
aF231.16392517089844
aF2.4606223106384277
aF58.61318588256836
aF0.2274852693080902
aF1.7961645126342773
aF17.165618896484375
aF3.9354400634765625
aF0.7902366518974304
aF-17.00030517578125
aF-1.145472764968872
aF0.2422323226928711
aF8.871849060058594
aF-35.90620422363281
aF0.49936002492904663
aF-16.264541625976562
aF3.1415927410125732
aF3.1415927410125732
aF0.0
aF0.0
aF3.1415927410125732
aF0.0
aF0.03578997775912285
aF1.5892614126205444
aF0.8886323571205139
aF0.016410503536462784
aF1.0946154594421387
aF-0.458326518535614
aF-0.12500722706317902
aF-1.3307709693908691
aF-0.4539293348789215
aF-0.11109627783298492
aF-0.4743460714817047
aF-0.8840847015380859
aF1.4791977405548096
aF-3.0758442878723145
aF-0.06542664021253586
aF0.9936741590499878
aF-0.6219199299812317
aF-0.09127454459667206
aF1.690595269203186
aF2.9951419830322266
aF30.570411682128906
aF207.24761962890625
aF2.255258083343506
aF24.94751739501953
aF1.4791977405548096
aF-3.0758442878723145
aF-0.06542664766311646
aF0.9936740398406982
aF-0.6219199299812317
aF-0.09127455949783325
aF1.704043984413147
aF2.9817235469818115
aF31.395967483520508
aF194.7093963623047
aF2.264328718185425
aF26.099224090576172
aF1.6786444187164307
aF3.0070743560791016
aF29.744855880737305
aF219.78582763671875
aF2.2455358505249023
aF23.795812606811523
aF-1.145472764968872
aF0.2422323226928711
aF8.871849060058594
aF-35.90620422363281
aF0.49936002492904663
aF-16.264541625976562
aF-1.7833749055862427
aF0.11624117940664291
aF4.549705505371094
aF-38.963775634765625
aF2.645691394805908
aF8.409927368164062
aF3.1415927410125732
aF3.1415927410125732
aF0.0
aF0.0
aF3.1415927410125732
aF0.0
aF0.03578997775912285
aF1.5892614126205444
aF0.8886323571205139
aF0.016410503536462784
aF1.0946154594421387
aF-0.458326518535614
aF-0.7514552474021912
aF-0.49013128876686096
aF-0.3422611653804779
aF-0.6414709091186523
aF-0.46245643496513367
aF-0.686565637588501
aF0.9363799691200256
aF-2.7627944946289062
aF-0.3052700161933899
aF0.7669718265533447
aF-0.4957994520664215
aF-0.5644151568412781
aF1.7335602045059204
aF2.962876081466675
aF33.99394226074219
aF188.18215942382812
aF2.308595895767212
aF30.90262794494629
aF0.9363800287246704
aF-2.762794256210327
aF-0.30527010560035706
aF0.7669718265533447
aF-0.49579963088035583
aF-0.5644150972366333
aF1.7648817300796509
aF2.9428162574768066
aF36.591915130615234
aF181.6549072265625
aF2.3439419269561768
aF35.706031799316406
aF1.704043984413147
aF2.9817235469818115
aF31.395967483520508
aF194.7093963623047
aF2.264328718185425
aF26.099224090576172
aF-1.7833749055862427
aF0.11624117940664291
aF4.549705505371094
aF-38.963775634765625
aF2.645691394805908
aF8.409927368164062
aF-2.2153570652008057
aF0.11941207200288773
aF3.7842864990234375
aF-31.54021453857422
aF2.9833035469055176
aF23.707427978515625
aF-2.1137287616729736
aF0.11641408503055573
aF3.9085159301757812
aF-33.422447204589844
aF2.9501664638519287
aF20.167861938476562
aF-2.1899406909942627
aF0.25423169136047363
aF7.272430419921875
aF-27.986557006835938
aF2.791928768157959
aF19.9437255859375
aF-1.7107036113739014
aF-0.07950220257043839
aF-0.07864730060100555
aF-0.9871616959571838
aF-2.626753568649292
aF0.13901935517787933
aF1.7631332874298096
aF2.8931918144226074
aF49.68495178222656
aF195.8882598876953
aF2.225592613220215
aF38.14812088012695
aF1.7470656633377075
aF2.9000182151794434
aF47.735389709472656
aF193.7421417236328
aF2.1967408657073975
aF34.50894546508789
aF-0.5566563010215759
aF-0.4325811564922333
aF-10.406487464904785
aF-22.537118911743164
aF-0.27980837225914
aF-36.21576690673828
aF3.1415927410125732
aF3.1415927410125732
aF0.0
aF0.0
aF3.1415927410125732
aF0.0
aF-0.28121787309646606
aF1.3815573453903198
aF0.823027491569519
aF-0.1576351374387741
aF0.9853177666664124
aF-0.5456894040107727
aF2.78102445602417
aF2.044651508331299
aF0.5667890310287476
aF0.2906637489795685
aF2.5076024532318115
aF0.770885705947876
aF-1.905825138092041
aF0.039284054189920425
aF0.03709344565868378
aF-0.9437509179115295
aF3.029175043106079
aF0.3285701274871826
aF1.8570111989974976
aF2.82661771774292
aF65.78298950195312
aF201.89878845214844
aF2.30539870262146
aF59.41783905029297
aF-1.9058252573013306
aF0.03928396850824356
aF0.03709336370229721
aF-0.9437509179115295
aF3.029175281524658
aF0.3285701870918274
aF1.7908687591552734
aF2.8633086681365967
aF64.80329132080078
aF226.82493591308594
aF2.2350730895996094
aF50.73971176147461
aF1.9381157159805298
aF2.7808520793914795
aF66.7626953125
aF176.97264099121094
aF2.3660805225372314
aF68.09596252441406
aF3.0064995288848877
aF1.8302092552185059
aF21.06848907470703
aF5.5914306640625
aF2.6682727336883545
aF41.13737487792969
aF0.0
aF1.5707963705062866
aF34.76716613769531
aF0.0
aF1.3021432161331177
aF-9.571701049804688
aF3.1415927410125732
aF3.1415927410125732
aF0.0
aF0.0
aF3.1415927410125732
aF0.0
aF-0.2541814148426056
aF1.398545742034912
aF0.8223579525947571
aF-0.14306944608688354
aF0.9807336330413818
aF-0.5506891012191772
aF1.3277629613876343
aF3.1336464881896973
aF0.007712687365710735
aF0.9705836176872253
aF0.03203965723514557
aF-0.240640789270401
aF2.9038949012756348
aF1.8988710641860962
aF0.5689181685447693
aF0.19364558160305023
aF2.522993326187134
aF0.7992706298828125
aF1.7384772300720215
aF2.897818088531494
aF55.6403923034668
aF223.70611572265625
aF2.1683578491210938
aF37.866798400878906
aF2.903895139694214
aF1.898870825767517
aF0.5689182281494141
aF0.1936454474925995
aF2.5229930877685547
aF0.799270510673523
aF1.6836212873458862
aF2.9339311122894287
aF46.47749328613281
aF220.58729553222656
aF2.0641961097717285
aF24.993885040283203
aF1.7908687591552734
aF2.8633086681365967
aF64.80329132080078
aF226.82493591308594
aF2.2350730895996094
aF50.73971176147461
aF0.0
aF1.5707963705062866
aF34.76716613769531
aF0.0
aF1.3021432161331177
aF-9.571701049804688
aF-1.1806873083114624
aF0.6746780872344971
aF24.24169921875
aF-30.3060302734375
aF1.0959765911102295
aF-12.4613037109375
aF3.1415927410125732
aF3.1415927410125732
aF0.0
aF0.0
aF3.1415927410125732
aF0.0
aF-0.2541814148426056
aF1.398545742034912
aF0.8223579525947571
aF-0.14306944608688354
aF0.9807336330413818
aF-0.5506891012191772
aF-0.08606746792793274
aF-1.445436954498291
aF-0.5635086297988892
aF-0.07101345807313919
aF-0.6003543734550476
aF-0.8230522871017456
aF1.4308890104293823
aF3.0620903968811035
aF0.07864730060100555
aF0.9871616959571838
aF0.5148390531539917
aF-0.13901935517787933
aF1.6940274238586426
aF2.928727388381958
aF45.776832580566406
aF211.79278564453125
aF2.0911636352539062
aF26.232391357421875
aF1.4308891296386719
aF3.0620903968811035
aF0.07864725589752197
aF0.9871616363525391
aF0.5148391723632812
aF-0.13901923596858978
aF1.7053049802780151
aF2.923085927963257
aF45.076175689697266
aF202.998291015625
aF2.1181228160858154
aF27.470895767211914
aF1.6836212873458862
aF2.9339311122894287
aF46.47749328613281
aF220.58729553222656
aF2.0641961097717285
aF24.993885040283203
aF-1.1806873083114624
aF0.6746780872344971
aF24.24169921875
aF-30.3060302734375
aF1.0959765911102295
aF-12.4613037109375
aF-1.7034872770309448
aF0.5217470526695251
aF18.567489624023438
aF-32.29780578613281
aF1.7989320755004883
aF4.3109588623046875
aF3.1415927410125732
aF3.1415927410125732
aF0.0
aF0.0
aF3.1415927410125732
aF0.0
aF-0.2541814148426056
aF1.398545742034912
aF0.8223579525947571
aF-0.14306944608688354
aF0.9807336330413818
aF-0.5506891012191772
aF-0.8024811744689941
aF-0.6874894499778748
aF-0.5084401369094849
aF-0.6192000508308411
aF-0.7043019533157349
aF-0.5983977913856506
aF0.9249129295349121
aF-2.822162389755249
aF-0.2553742825984955
aF0.7720896601676941
aF-0.41352441906929016
aF-0.5819463729858398
aF1.7320748567581177
aF2.9069292545318604
aF47.0811767578125
aF196.9364471435547
aF2.1683313846588135
aF32.039886474609375
aF0.924912691116333
aF-2.822162389755249
aF-0.2553742229938507
aF0.7720894813537598
aF-0.4135242700576782
aF-0.5819464921951294
aF1.7602906227111816
aF2.8898823261260986
aF49.08617401123047
aF190.87460327148438
aF2.211609363555908
aF36.6088752746582
aF1.7053049802780151
aF2.923085927963257
aF45.076175689697266
aF202.998291015625
aF2.1181228160858154
aF27.470895767211914
aF-1.7034872770309448
aF0.5217470526695251
aF18.567489624023438
aF-32.29780578613281
aF1.7989320755004883
aF4.3109588623046875
aF-2.195939302444458
aF0.5905214548110962
aF17.032363891601562
aF-25.409637451171875
aF2.3930959701538086
aF18.338180541992188
aF-2.0744426250457764
aF0.5605821013450623
aF17.00250244140625
aF-27.084365844726562
aF2.291208267211914
aF14.92474365234375
aF-2.1225860118865967
aF0.6750094294548035
aF18.154251098632812
aF-22.680328369140625
aF2.2263717651367188
aF13.961334228515625
a.