(lp0
F3.1415927410125732
aF3.1415927410125732
aF0.0
aF0.0
aF3.1415927410125732
aF0.0
aF1.0304912328720093
aF1.651562213897705
aF0.9955750703811646
aF0.08058379590511322
aF1.5222818851470947
aF-0.04833774268627167
aF2.141334295272827
aF-3.0918493270874023
aF-0.0418623611330986
aF0.8408727645874023
aF-3.064168930053711
aF0.5396114587783813
aF-2.574592113494873
aF0.15591733157634735
aF0.08412983268499374
aF-0.5352001786231995
aF3.04183292388916
aF0.8405253887176514
aF2.519932508468628
aF2.9000754356384277
aF26.119184494018555
aF106.03534698486328
aF2.966919183731079
aF148.00762939453125
aF0.5670004487037659
aF-2.98567533493042
aF-0.08412983268499374
aF0.5352001786231995
aF-0.09975969791412354
aF-0.8405253887176514
aF1.8141857385635376
aF3.051612138748169
aF15.602954864501953
aF172.93536376953125
aF2.793074607849121
aF42.94194793701172
aF3.1415927410125732
aF3.1415927410125732
aF0.0
aF0.0
aF3.1415927410125732
aF0.0
aF0.6333658695220947
aF1.9469540119171143
aF0.8317971229553223
aF0.32853013277053833
aF1.0772970914840698
aF-0.4474164545536041
aF3.0255961418151855
aF1.8033993244171143
aF0.43897515535354614
aF0.10398917645215988
aF2.6844699382781982
aF0.8924612402915955
aF-1.5093891620635986
aF0.3472297191619873
aF0.33972686529159546
aF-0.9387513995170593
aF1.4025061130523682
aF-0.05771865323185921
aF0.345676064491272
aF1.632203459739685
aF-2.794363021850586
aF-0.33972686529159546
aF0.9387513995170593
aF-1.739086627960205
aF0.05771865323185921
aF1.0
aF-0.11599647998809814
aF-1.3381932973861694
aF-0.43897515535354614
aF-0.10398917645215988
aF-0.45712271332740784
aF-0.8924612402915955
aF1.7769808769226074
aF-3.100121259689331
aF-9.010194778442383
aF217.13818359375
aF-2.9457430839538574
aF45.41594314575195
aF2.2665019035339355
aF2.3565521240234375
aF6.111359596252441
aF6.1157331466674805
aF2.2668538093566895
aF5.106476306915283
aF0.598050594329834
aF1.6366446018218994
aF-3.0269410610198975
aF-25.92732048034668
aF225.14816284179688
aF-2.0908567905426025
aF14.847076416015625
aF29.754152297973633
aF1.7042237520217896
aF-3.118399143218994
aF-4.754373073577881
aF204.9508819580078
aF-2.970456600189209
aF27.50950050354004
aF1.8141857385635376
aF3.051612138748169
aF15.602954864501953
aF172.93536376953125
aF2.793074607849121
aF42.94194793701172
aF3.061762809753418
aF2.0863897800445557
aF7.058094024658203
aF4.0
aF3.001357316970825
aF50.00001525878906
aF-1.2434611320495605
aF0.06593933701515198
aF2.2369232177734375
aF-33.87477493286133
aF0.1920805126428604
aF-11.502182006835938
aF1.0743117332458496
aF-2.7947328090667725
aF-0.30289968848228455
aF0.8379569053649902
aF-0.5883982181549072
aF-0.4539603292942047
aF1.5777264833450317
aF-2.9533309936523438
aF-43.59905242919922
aF228.84490966796875
aF-1.6071563959121704
aF1.5859627723693848
aF1.6036125421524048
aF-2.9797098636627197
aF-38.08711624145508
aF233.2170867919922
aF-1.7691669464111328
aF7.65605354309082
aF-2.1537227630615234
aF1.3428674936294556
aF20.52774429321289
aF-4.7616095542907715
aF1.722564935684204
aF3.1396100521087646
aF3.1415927410125732
aF3.1415927410125732
aF0.0
aF0.0
aF3.1415927410125732
aF0.0
aF2.566067934036255
aF2.1241936683654785
aF0.6610524654388428
aF0.40839123725891113
aF2.3317227363586426
aF0.6294650435447693
aF-2.471073865890503
aF-0.5277049541473389
aF-0.34052616357803345
aF-0.584255039691925
aF-2.708599805831909
aF0.7366735935211182
aF-1.2319762706756592
aF0.7615258097648621
aF0.6686191558837891
aF-0.701329231262207
aF1.216723918914795
aF-0.2471553236246109
aF1.848283290863037
aF-3.0813422203063965
aF-9.666793823242188
aF160.24905395507812
aF-2.9328925609588623
aF45.64461898803711
aF3.1415927410125732
aF3.1415927410125732
aF0.0
aF0.0
aF3.1415927410125732
aF0.0
aF1.848283290863037
aF-3.0813422203063965
aF-9.666793823242188
aF160.24905395507812
aF-2.9328925609588623
aF45.64461898803711
aF1.848283290863037
aF-3.0813422203063965
aF-9.666793823242188
aF160.24905395507812
aF-2.9328925609588623
aF45.64461898803711
aF-3.029219150543213
aF-1.269948124885559
aF-19.3382568359375
aF-6.0
aF-2.792750835418701
aF53.168487548828125
aF-3.029219150543213
aF-1.269948124885559
aF-19.3382568359375
aF-6.0
aF-2.792750835418701
aF53.168487548828125
aF3.1415927410125732
aF3.1415927410125732
aF0.0
aF0.0
aF3.1415927410125732
aF0.0
aF2.4565577507019043
aF2.391328811645508
aF0.5079782605171204
aF0.5449888110160828
aF2.4907476902008057
aF0.6670421957969666
aF-2.821133852005005
aF-1.2369812726974487
aF-0.6723636984825134
aF-0.23317112028598785
aF-2.3781368732452393
aF0.7025370001792908
aF-1.8694984912872314
aF0.5892887115478516
aF0.5384097695350647
aF-0.8053684830665588
aF2.002419948577881
aF0.24798484146595
aF1.7903536558151245
aF-3.018604278564453
aF-22.10944366455078
aF178.86111450195312
aF-2.6357362270355225
aF39.91368865966797
aF-1.869498372077942
aF0.5892886519432068
aF0.5384097099304199
aF-0.8053685426712036
aF2.002419948577881
aF0.24798476696014404
aF1.7421985864639282
aF-2.9683749675750732
aF-34.552093505859375
aF197.4731903076172
aF-2.3508212566375732
aF34.182762145996094
aF1.848283290863037
aF-3.0813422203063965
aF-9.666793823242188
aF160.24905395507812
aF-2.9328925609588623
aF45.64461898803711
aF-3.029219150543213
aF-1.269948124885559
aF-19.3382568359375
aF-6.0
aF-2.792750835418701
aF53.168487548828125
aF-1.9920263290405273
aF-0.7722996473312378
aF-22.680309295654297
aF-23.282386779785156
aF-2.001887798309326
aF10.431640625
aF3.1415927410125732
aF3.1415927410125732
aF0.0
aF0.0
aF3.1415927410125732
aF0.0
aF2.4565577507019043
aF2.391328811645508
aF0.5079782605171204
aF0.5449888110160828
aF2.4907476902008057
aF0.6670421957969666
aF3.093292474746704
aF-1.6061941385269165
aF-0.806355893611908
aF0.028555119410157204
aF-2.2030718326568604
aF0.5907408595085144
aF-2.0672810077667236
aF0.3468599021434784
aF0.30289968848228455
aF-0.8379569053649902
aF2.553194522857666
aF0.4539603292942047
aF1.6983251571655273
aF-2.9570376873016357
aF-39.33336639404297
aF210.70034790039062
aF-2.1726572513580322
aF27.016998291015625
aF-2.0672810077667236
aF0.34685996174812317
aF0.3028997480869293
aF-0.8379569053649902
aF2.553194522857666
aF0.4539603888988495
aF1.6592154502868652
aF-2.9470794200897217
aF-44.11463928222656
aF223.927490234375
aF-1.9936435222625732
aF19.851232528686523
aF1.7421985864639282
aF-2.9683749675750732
aF-34.552093505859375
aF197.4731903076172
aF-2.3508212566375732
aF34.182762145996094
aF-1.9920263290405273
aF-0.7722996473312378
aF-22.680309295654297
aF-23.282386779785156
aF-2.001887798309326
aF10.431640625
aF-1.149271845817566
aF-0.3924746513366699
aF-15.531211853027344
aF-37.51947784423828
aF-0.7454685568809509
aF-16.823822021484375
aF3.1415927410125732
aF3.1415927410125732
aF0.0
aF0.0
aF3.1415927410125732
aF0.0
aF2.4565577507019043
aF2.391328811645508
aF0.5079782605171204
aF0.5449888110160828
aF2.4907476902008057
aF0.6670421957969666
aF1.632704496383667
aF-2.2847111225128174
aF-0.7551823854446411
aF0.6542589664459229
aF-1.6244481801986694
aF0.040555838495492935
aF-2.5276269912719727
aF-0.6687160134315491
aF-0.4143158197402954
aF-0.5243399739265442
aF-2.633437156677246
aF0.743915319442749
aF1.6221034526824951
aF-2.9706974029541016
aF-39.625526428222656
aF229.60870361328125
aF-1.8600116968154907
aF11.790910720825195
aF-2.5276272296905518
aF-0.6687163710594177
aF-0.41431596875190735
aF-0.5243397951126099
aF-2.633437156677246
aF0.7439153790473938
aF1.5866502523422241
aF-2.9933557510375977
aF-35.13641357421875
aF235.28993225097656
aF-1.676574468612671
aF3.730588674545288
aF1.6592154502868652
aF-2.9470794200897217
aF-44.11463928222656
aF223.927490234375
aF-1.9936435222625732
aF19.851232528686523
aF-1.149271845817566
aF-0.3924746513366699
aF-15.531211853027344
aF-37.51947784423828
aF-0.7454685568809509
aF-16.823822021484375
aF-1.105135202407837
aF0.06153338402509689
aF2.8824005126953125
aF-46.78373718261719
aF0.121995709836483
aF-23.509735107421875
aF-1.1000795364379883
aF-0.04482907056808472
aF-2.009296417236328
aF-44.79125213623047
aF-0.0879274532198906
aF-22.792831420898438
aF-1.2070046663284302
aF-0.09978727996349335
aF-5.314643859863281
aF-53.08283615112305
aF-0.25714102387428284
aF-20.210647583007812
aF-1.3719351291656494
aF0.5135375261306763
aF0.4838639497756958
aF-0.857896089553833
aF1.2276281118392944
aF-0.17288729548454285
aF1.6548558473587036
aF-2.9716179370880127
aF-32.33863830566406
aF188.41970825195312
aF-2.027158498764038
aF15.875877380371094
aF1.6918896436691284
aF-2.974376916885376
aF-33.71418380737305
aF199.73828125
aF-2.1954379081726074
aF24.305889129638672
aF1.9422744512557983
aF2.197511911392212
aF8.447739601135254
aF6.116977691650391
aF1.84573495388031
aF2.382958173751831
aF3.1415927410125732
aF3.1415927410125732
aF0.0
aF0.0
aF3.1415927410125732
aF0.0
aF0.8402373790740967
aF2.133758783340454
aF0.7629479169845581
aF0.4814843535423279
aF1.0562037229537964
aF-0.4313737154006958
aF2.8899576663970947
aF2.1384544372558594
aF0.36372140049934387
aF0.23193399608135223
aF2.7583632469177246
aF0.9021714925765991
aF-1.5729583501815796
aF0.5638362765312195
aF0.5344316959381104
aF-0.8452097177505493
aF1.5742156505584717
aF0.0018273970345035195
aF1.853943109512329
aF-3.057537317276001
aF-17.07608413696289
aF202.67405700683594
aF-2.859734058380127
aF58.970947265625
aF-1.5729583501815796
aF0.5638362765312195
aF0.5344316959381104
aF-0.8452096581459045
aF1.5742156505584717
aF0.0018273809691891074
aF1.8200124502182007
aF-2.9903392791748047
aF-35.27882766723633
aF231.46189880371094
aF-2.6020023822784424
aF58.90870666503906
aF1.8980804681777954
aF3.135113477706909
aF1.1266605854034424
aF173.88621520996094
aF3.122509717941284
aF59.03318786621094
aF2.86875581741333
aF-2.3659799098968506
aF-11.870344161987305
aF12.104957580566406
aF-2.8737924098968506
aF43.26063537597656
aF0.08618167042732239
aF-1.6568598747253418
aF-23.18128204345703
aF2.0000038146972656
aF-0.7860873341560364
aF-23.14935302734375
aF3.1415927410125732
aF3.1415927410125732
aF0.0
aF0.0
aF3.1415927410125732
aF0.0
aF0.8665810227394104
aF2.168325901031494
aF0.7459123730659485
aF0.5076054334640503
aF1.046626329421997
aF-0.4312209486961365
aF1.7205373048782349
aF-2.606117010116577
aF-0.506008505821228
aF0.852876603603363
aF-1.819810152053833
aF0.1286737620830536
aF3.0055744647979736
aF1.8458504676818848
aF0.43309375643730164
aF0.12222210317850113
aF2.690037488937378
aF0.8930238485336304
aF1.7485547065734863
aF-2.9522416591644287
aF-43.89305877685547
aF229.03089904785156
aF-2.3239078521728516
aF41.146461486816406
aF3.0055744647979736
aF1.8458507061004639
aF0.4330936372280121
aF0.12222220003604889
aF2.690037727355957
aF0.8930238485336304
aF1.673628330230713
aF-2.913893222808838
aF-52.507293701171875
aF226.5998992919922
aF-1.9897780418395996
aF23.38421630859375
aF1.8200124502182007
aF-2.9903392791748047
aF-35.27882766723633
aF231.46189880371094
aF-2.6020023822784424
aF58.90870666503906
aF0.08618167042732239
aF-1.6568598747253418
aF-23.18128204345703
aF2.0000038146972656
aF-0.7860873341560364
aF-23.14935302734375
aF-1.035765528678894
aF-0.5510827302932739
aF-23.214942932128906
aF-37.77268981933594
aF-0.8035368323326111
aF-22.387680053710938
aF3.1415927410125732
aF3.1415927410125732
aF0.0
aF0.0
aF3.1415927410125732
aF0.0
aF0.8665810227394104
aF2.168325901031494
aF0.7459123730659485
aF0.5076054334640503
aF1.046626329421997
aF-0.4312209486961365
aF-0.08975373953580856
aF-1.3984076976776123
aF-0.45770129561424255
aF-0.0796934962272644
aF-0.4770512878894806
aF-0.8855272531509399
aF1.7696576118469238
aF-2.6280550956726074
aF-0.4838639497756958
aF0.857896089553833
aF-1.9139646291732788
aF0.17288729548454285
aF1.6693223714828491
aF-2.9278886318206787
aF-47.092857360839844
aF217.00003051757812
aF-1.9981937408447266
aF21.449607849121094
aF1.7696574926376343
aF-2.6280553340911865
aF-0.4838637113571167
aF0.8578962087631226
aF-1.9139646291732788
aF0.17288722097873688
aF1.6646136045455933
aF-2.943277597427368
aF-41.67842102050781
aF207.40017700195312
aF-2.008704662322998
aF19.514999389648438
aF1.673628330230713
aF-2.913893222808838
aF-52.507293701171875
aF226.5998992919922
aF-1.9897780418395996
aF23.38421630859375
aF-1.035765528678894
aF-0.5510827302932739
aF-23.214942932128906
aF-37.77268981933594
aF-0.8035368323326111
aF-22.387680053710938
aF-1.5587944984436035
aF-0.454238623380661
aF-18.784053802490234
aF-38.46877670288086
aF-1.546221137046814
aF-0.4617156982421875
aF3.1415927410125732
aF3.1415927410125732
aF0.0
aF0.0
aF3.1415927410125732
aF0.0
aF0.8665810227394104
aF2.168325901031494
aF0.7459123730659485
aF0.5076054334640503
aF1.046626329421997
aF-0.4312209486961365
aF-0.6216733455657959
aF-0.1257421225309372
aF-0.07342145591974258
aF-0.5808243751525879
aF-0.09031789004802704
aF-0.8107110261917114
aF1.0141912698745728
aF-2.3364763259887695
aF-0.661984920501709
aF0.6363801956176758
aF-1.0317286252975464
aF-0.39597493410110474
aF1.6822443008422852
aF-2.9634222984313965
aF-36.44211959838867
aF202.36642456054688
aF-2.126842737197876
aF22.647159576416016
aF1.014190673828125
aF-2.336475372314453
aF-0.661985456943512
aF0.6363796591758728
aF-1.031728744506836
aF-0.39597511291503906
aF1.7006995677947998
aF-2.984753370285034
aF-31.20581817626953
aF197.33265686035156
aF-2.26125431060791
aF25.779321670532227
aF1.6646136045455933
aF-2.943277597427368
aF-41.67842102050781
aF207.40017700195312
aF-2.008704662322998
aF19.514999389648438
aF-1.5587944984436035
aF-0.454238623380661
aF-18.784053802490234
aF-38.46877670288086
aF-1.546221137046814
aF-0.4617156982421875
aF-1.9645848274230957
aF-0.5042273998260498
aF-16.183212280273438
aF-29.32781219482422
aF-2.216193675994873
aF12.1854248046875
aF-1.8538395166397095
aF-0.4905368685722351
aF-16.820114135742188
aF-31.493743896484375
aF-2.069474458694458
aF9.160018920898438
aF-2.053337812423706
aF-0.3758499324321747
aF-15.622701644897461
aF-39.59038162231445
aF-2.495988130569458
aF20.739242553710938
aF-1.490142583847046
aF0.3829777240753174
aF0.3726382851600647
aF-0.9249600768089294
aF1.3727918863296509
aF-0.07476367056369781
aF1.6415969133377075
aF-3.010068655014038
aF-24.753232955932617
aF187.11663818359375
aF-2.06290340423584
aF13.27015209197998
aF1.6672512292861938
aF-3.0221173763275146
aF-23.640411376953125
aF196.92608642578125
aF-2.2491707801818848
aF19.053613662719727
aF2.1438238620758057
aF2.0641934871673584
aF9.705876350402832
aF5.219430446624756
aF1.9047858715057373
aF3.367827892303467
aF3.1415927410125732
aF3.1415927410125732
aF0.0
aF0.0
aF3.1415927410125732
aF0.0
aF0.5031073093414307
aF1.9674971103668213
aF0.7548778057098389
aF0.3162256181240082
aF0.9201797246932983
aF-0.5745962262153625
aF2.79864764213562
aF2.0992178916931152
aF0.49911558628082275
aF0.29138293862342834
aF2.592684030532837
aF0.8160757422447205
aF-1.6395000219345093
aF0.4404152035713196
aF0.425491601228714
aF-0.9028274416923523
aF1.7157803773880005
aF0.06212538108229637
aF1.8214154243469238
aF-3.1237738132476807
aF-3.729978084564209
aF209.3045654296875
aF-3.0720925331115723
aF53.58226776123047
aF-1.6395000219345093
aF0.4404151141643524
aF0.4254915416240692
aF-0.9028275012969971
aF1.7157803773880005
aF0.06212541088461876
aF1.7837964296340942
aF-3.0684492588043213
aF-17.473356246948242
aF238.4658966064453
aF-2.8149383068084717
aF51.57561492919922
aF1.8701075315475464
aF3.086064100265503
aF10.013400077819824
aF180.1432342529297
aF2.9633708000183105
aF55.58891677856445
aF2.8187811374664307
aF-3.076767921447754
aF-0.8817367553710938
aF13.582794189453125
aF-3.1198809146881104
aF40.604736328125
aF0.17035998404026031
aF-2.5327529907226562
aF-2.7887725830078125
aF4.0
aF-0.11936617642641068
aF-23.252105712890625
aF3.1415927410125732
aF3.1415927410125732
aF0.0
aF0.0
aF3.1415927410125732
aF0.0
aF0.5394793748855591
aF2.0066676139831543
aF0.7408322095870972
aF0.34504011273384094
aF0.9096763134002686
aF-0.5762941837310791
aF1.6211694478988647
aF-2.7384283542633057
aF-0.39190971851348877
aF0.9188367128372192
aF-1.6884506940841675
aF0.04632383584976196
aF2.911020040512085
aF1.908468246459961
aF0.5455037951469421
aF0.19153711199760437
aF2.552274703979492
aF0.8159283995628357
aF1.712325930595398
aF-3.0156726837158203
aF-29.64627456665039
aF234.19174194335938
aF-2.4151902198791504
aF33.36817169189453
aF2.911019802093506
aF1.9084686040878296
aF0.5455037951469421
aF0.1915372908115387
aF2.552274703979492
aF0.8159283399581909
aF1.6366409063339233
aF-2.961671829223633
aF-41.819190979003906
aF229.91758728027344
aF-1.9185903072357178
aF15.160731315612793
aF1.7837964296340942
aF-3.0684492588043213
aF-17.473356246948242
aF238.4658966064453
aF-2.8149383068084717
aF51.57561492919922
aF0.17035998404026031
aF-2.5327529907226562
aF-2.7887725830078125
aF4.0
aF-0.11936617642641068
aF-23.252105712890625
aF-1.0803894996643066
aF-0.23406556248664856
aF-9.55532455444336
aF-40.07501983642578
aF-0.42000943422317505
aF-21.396484375
aF3.1415927410125732
aF3.1415927410125732
aF0.0
aF0.0
aF3.1415927410125732
aF0.0
aF0.5394793748855591
aF2.0066676139831543
aF0.7408322095870972
aF0.34504011273384094
aF0.9096763134002686
aF-0.5762941837310791
aF-0.19337385892868042
aF-1.2930066585540771
aF-0.558845579624176
aF-0.15936194360256195
aF-0.6017427444458008
aF-0.8138153553009033
aF1.6514500379562378
aF-2.758615016937256
aF-0.3726382851600647
aF0.9249600768089294
aF-1.7688008546829224
aF0.07476367056369781
aF1.635811686515808
aF-2.9736599922180176
aF-36.91340637207031
aF217.740478515625
aF-1.9374746084213257
aF14.176467895507812
aF1.6514500379562378
aF-2.758615016937256
aF-0.37263819575309753
aF0.9249600172042847
aF-1.7688007354736328
aF0.07476363331079483
aF1.634884238243103
aF-2.987126111984253
aF-32.007625579833984
aF205.56338500976562
aF-1.9617397785186768
aF13.192204475402832
aF1.6366409063339233
aF-2.961671829223633
aF-41.819190979003906
aF229.91758728027344
aF-1.9185903072357178
aF15.160731315612793
aF-1.0803894996643066
aF-0.23406556248664856
aF-9.55532455444336
aF-40.07501983642578
aF-0.42000943422317505
aF-21.396484375
aF-1.6928342580795288
aF-0.20943878591060638
aF-8.51443099975586
aF-40.05739212036133
aF-2.094141721725464
aF4.912933349609375
aF3.1415927410125732
aF3.1415927410125732
aF0.0
aF0.0
aF3.1415927410125732
aF0.0
aF0.5394793748855591
aF2.0066676139831543
aF0.7408322095870972
aF0.34504011273384094
aF0.9096763134002686
aF-0.5762941837310791
aF-0.7771384119987488
aF-0.314333438873291
aF-0.22227902710437775
aF-0.6836993098258972
aF-0.3095083236694336
aF-0.6950879693031311
aF0.9815922975540161
aF-2.363396644592285
aF-0.6338451504707336
aF0.6430416703224182
aF-0.9749190807342529
aF-0.4298112988471985
aF1.6552658081054688
aF-3.009873390197754
aF-26.49317169189453
aF199.96893310546875
aF-2.139464855194092
aF16.931562423706055
aF0.981592059135437
aF-2.363396406173706
aF-0.6338452696800232
aF0.6430414319038391
aF-0.9749190807342529
aF-0.42981135845184326
aF1.676743984222412
aF-3.0340793132781982
aF-20.97871971130371
aF194.3744659423828
aF-2.348804473876953
aF20.670921325683594
aF1.634884238243103
aF-2.987126111984253
aF-32.007625579833984
aF205.56338500976562
aF-1.9617397785186768
aF13.192204475402832
aF-1.6928342580795288
aF-0.20943878591060638
aF-8.51443099975586
aF-40.05739212036133
aF-2.094141721725464
aF4.912933349609375
aF-2.1334054470062256
aF-0.21100501716136932
aF-6.362621307373047
aF-29.70503807067871
aF-2.8141489028930664
aF18.731704711914062
aF-2.021879196166992
aF-0.21546036005020142
aF-7.014713287353516
aF-32.05149841308594
aF-2.717226505279541
aF15.525466918945312
aF-2.138422966003418
aF-0.21794621646404266
aF-8.575435638427734
aF-38.72159194946289
aF-2.8073017597198486
aF24.689865112304688
aF-1.5917117595672607
aF0.2390173226594925
aF0.23669911921024323
aF-0.97137051820755
aF1.6564321517944336
aF0.020319608971476555
aF1.6353521347045898
aF-3.0801072120666504
aF-11.621382713317871
aF188.772216796875
aF-2.380614995956421
aF12.203309059143066
aF1.6552587747573853
aF-3.091123342514038
aF-9.98272705078125
aF197.6295623779297
aF-2.603660821914673
aF16.732088088989258
aF2.5298402309417725
aF2.006274700164795
aF9.24717903137207
aF4.302420616149902
aF2.1564083099365234
aF6.13290548324585
aF3.1415927410125732
aF3.1415927410125732
aF0.0
aF0.0
aF3.1415927410125732
aF0.0
aF0.24844622611999512
aF1.7721294164657593
aF0.7694768905639648
aF0.15704894065856934
aF0.8933013677597046
aF-0.6190645694732666
aF2.789785623550415
aF2.0369346141815186
aF0.5650821328163147
aF0.28430256247520447
aF2.5112717151641846
aF0.7745025753974915
aF-1.7074118852615356
aF0.304886132478714
aF0.2976364493370056
aF-0.9457841515541077
aF1.9826503992080688
aF0.1300187110900879
aF1.784151554107666
aF3.094383716583252
aF10.019477844238281
aF212.07913208007812
aF2.9268901348114014
aF45.947509765625
aF-1.7074118852615356
aF0.3048860728740692
aF0.2976364195346832
aF-0.9457842111587524
aF1.9826503992080688
aF0.1300186961889267
aF1.7451083660125732
aF3.1357975006103516
aF1.3880207538604736
aF239.5068817138672
aF3.1086950302124023
aF42.17696762084961
aF1.8338123559951782
aF3.0409278869628906
aF18.65093421936035
aF184.65139770507812
aF2.7827043533325195
aF49.71805191040039
aF2.833789110183716
aF2.4511961936950684
aF10.410724639892578
aF12.603736877441406
aF2.8847978115081787
aF39.64595031738281
aF0.22748586535453796
aF1.796165108680725
aF17.44717025756836
aF4.0
aF0.7902367115020752
aF-17.279144287109375
aF3.1415927410125732
aF3.1415927410125732
aF0.0
aF0.0
aF3.1415927410125732
aF0.0
aF0.2719644606113434
aF1.793702244758606
aF0.7642621397972107
aF0.17323729395866394
aF0.8882912397384644
aF-0.6212022304534912
aF1.525705337524414
aF-2.8840911388397217
aF-0.2544231414794922
aF0.9661099910736084
aF-1.4011057615280151
aF-0.0435924232006073
aF2.901726722717285
aF1.8831497430801392
aF0.5925978422164917
aF0.19136425852775574
aF2.4933884143829346
aF0.7824369072914124
aF1.6806994676589966
aF-3.0954782962799072
aF-10.869865417480469
aF235.54852294921875
aF-2.7454988956451416
aF25.992259979248047
aF2.9017269611358643
aF1.88314950466156
aF0.5925979018211365
aF0.1913641095161438
aF2.4933884143829346
aF0.7824369668960571
aF1.6131198406219482
aF-3.042057752609253
aF-23.12775230407715
aF231.59014892578125
aF-1.9718704223632812
aF9.8075532913208
aF1.7451083660125732
aF3.1357975006103516
aF1.3880207538604736
aF239.5068817138672
aF3.1086950302124023
aF42.17696762084961
aF0.22748586535453796
aF1.796165108680725
aF17.44717025756836
aF4.0
aF0.7902367115020752
aF-17.279144287109375
aF-1.1503489017486572
aF0.2402862161397934
aF8.936744689941406
aF-36.47351837158203
aF0.5013136267662048
aF-16.307647705078125
aF3.1415927410125732
aF3.1415927410125732
aF0.0
aF0.0
aF3.1415927410125732
aF0.0
aF0.2719644606113434
aF1.793702244758606
aF0.7642621397972107
aF0.17323729395866394
aF0.8882912397384644
aF-0.6212022304534912
aF-0.20461465418338776
aF-1.3061599731445312
aF-0.5998973846435547
aF-0.16256752610206604
aF-0.6535203456878662
aF-0.7833868265151978
aF1.549880862236023
aF-2.9025752544403076
aF-0.23669911921024323
aF0.97137051820755
aF-1.4851605892181396
aF-0.020319608971476555
aF1.616709589958191
aF-3.050158977508545
aF-20.092086791992188
aF219.13232421875
aF-2.0353238582611084
aF10.06815242767334
aF1.549880862236023
aF-2.9025754928588867
aF-0.23669902980327606
aF0.9713704586029053
aF-1.48516047000885
aF-0.020319610834121704
aF1.6207307577133179
aF-3.059251308441162
aF-17.056419372558594
aF206.6744842529297
aF-2.1152968406677246
aF10.328751564025879
aF1.6131198406219482
aF-3.042057752609253
aF-23.12775230407715
aF231.59014892578125
aF-1.9718704223632812
aF9.8075532913208
aF-1.1503489017486572
aF0.2402862161397934
aF8.936744689941406
aF-36.47351837158203
aF0.5013136267662048
aF-16.307647705078125
aF-1.8192017078399658
aF0.1537308543920517
aF5.568122863769531
aF-35.93416213989258
aF2.5931904315948486
aF9.114486694335938
aF3.1415927410125732
aF3.1415927410125732
aF0.0
aF0.0
aF3.1415927410125732
aF0.0
aF0.2719644606113434
aF1.793702244758606
aF0.7642621397972107
aF0.17323729395866394
aF0.8882912397384644
aF-0.6212022304534912
aF-0.8584551811218262
aF-0.44367584586143494
aF-0.33847546577453613
aF-0.7121618390083313
aF-0.5031051635742188
aF-0.6150283813476562
aF0.950829267501831
aF-2.4626545906066895
aF-0.5489423274993896
aF0.6803046464920044
aF-0.8465065360069275
aF-0.4856417775154114
aF1.643032431602478
aF-3.0803709030151367
aF-12.30806827545166
aF200.78985595703125
aF-2.438781261444092
aF14.529552459716797
aF0.9508293271064758
aF-2.4626545906066895
aF-0.5489422678947449
aF0.6803046464920044
aF-0.8465064764022827
aF-0.485641747713089
aF1.6666018962860107
aF-3.102825403213501
aF-7.559716701507568
aF194.90521240234375
aF-2.7579801082611084
aF18.73035430908203
aF1.6207307577133179
aF-3.059251308441162
aF-17.056419372558594
aF206.6744842529297
aF-2.1152968406677246
aF10.328751564025879
aF-1.8192017078399658
aF0.1537308543920517
aF5.568122863769531
aF-35.93416213989258
aF2.5931904315948486
aF9.114486694335938
aF-2.30279278755188
aF0.22528281807899475
aF5.841876983642578
aF-25.491119384765625
aF2.8918607234954834
aF22.904266357421875
aF-2.1815357208251953
aF0.19755150377750397
aF5.615516662597656
aF-28.054832458496094
aF2.863086462020874
aF19.638946533203125
aF-2.2575104236602783
aF0.09952569752931595
aF3.3688278198242188
aF-33.73698806762695
aF3.0203888416290283
aF27.658493041992188
aF-1.565537452697754
aF0.09032125025987625
aF0.09019725769758224
aF-0.9959101676940918
aF1.5127952098846436
aF-0.005237414967268705
aF1.605309009552002
aF3.135133743286133
aF1.2785123586654663
aF197.9448699951172
aF2.956657648086548
aF6.834314346313477
aF1.6313680410385132
aF3.135625123977661
aF1.2334753274917603
aF206.69712829589844
aF3.043508529663086
aF12.535344123840332
aF2.707400321960449
aF1.8881220817565918
aF10.659963607788086
aF3.500988721847534
aF2.187045097351074
aF7.55003547668457
aF3.1415927410125732
aF3.1415927410125732
aF0.0
aF0.0
aF3.1415927410125732
aF0.0
aF-0.003641428891569376
aF1.5670263767242432
aF0.6947371363639832
aF-0.002619141945615411
aF0.7680577039718628
aF-0.7192589640617371
aF2.826702833175659
aF1.8752745389938354
aF0.701945424079895
aF0.22058619558811188
aF2.338261842727661
aF0.6772106885910034
aF-1.728481411933899
aF0.15948152542114258
aF0.15688487887382507
aF-0.9753639698028564
aF2.3504345417022705
aF0.1550879180431366
aF1.731563925743103
aF3.0413620471954346
aF21.28985595703125
aF211.69680786132812
aF2.586489677429199
aF34.330257415771484
aF-1.728481411933899
aF0.15948151051998138
aF0.15688487887382507
aF-0.9753640294075012
aF2.3504345417022705
aF0.1550879031419754
aF1.6969385147094727
aF3.0699219703674316
aF17.07828140258789
aF237.8804473876953
aF2.626452922821045
aF30.166921615600586
aF1.775390863418579
aF3.0049846172332764
aF25.50143051147461
aF185.51315307617188
aF2.556490659713745
aF38.49359130859375
aF3.0064992904663086
aF1.830209493637085
aF21.414073944091797
aF5.6831512451171875
aF2.6682724952697754
aF41.81211853027344
aF0.0
aF1.5707963705062866
aF35.33744430541992
aF0.0
aF1.3021429777145386
aF-9.728713989257812
aF3.1415927410125732
aF3.1415927410125732
aF0.0
aF0.0
aF3.1415927410125732
aF0.0
aF0.08982928842306137
aF1.6666847467422485
aF0.6820635795593262
aF0.06560321152210236
aF0.7525961399078369
aF-0.7283443808555603
aF1.5384907722473145
aF-3.011636257171631
aF-0.12952446937561035
aF0.9910588264465332
aF-1.3283865451812744
aF-0.03202781826257706
aF2.9734511375427246
aF1.730841875076294
aF0.7197309732437134
aF0.11618342995643616
aF2.331083059310913
aF0.6844623684883118
aF1.650979995727539
aF3.119152545928955
aF5.2962846755981445
aF235.978515625
aF2.869227170944214
aF18.96227264404297
aF2.9734511375427246
aF1.7308419942855835
aF0.7197309732437134
aF0.11618350446224213
aF2.331083059310913
aF0.684462308883667
aF1.6039255857467651
aF-3.113892078399658
aF-6.485712051391602
aF234.07659912109375
aF-2.4452569484710693
aF7.757623672485352
aF1.6969385147094727
aF3.0699219703674316
aF17.07828140258789
aF237.8804473876953
aF2.626452922821045
aF30.166921615600586
aF0.0
aF1.5707963705062866
aF35.33744430541992
aF0.0
aF1.3021429777145386
aF-9.728713989257812
aF-1.1742931604385376
aF0.6731996536254883
aF24.513591766357422
aF-30.738994598388672
aF1.0873466730117798
aF-12.869720458984375
aF3.1415927410125732
aF3.1415927410125732
aF0.0
aF0.0
aF3.1415927410125732
aF0.0
aF0.08982928842306137
aF1.6666847467422485
aF0.6820635795593262
aF0.06560321152210236
aF0.7525961399078369
aF-0.7283443808555603
aF-0.09041713178157806
aF-1.4854021072387695
aF-0.7257091403007507
aF-0.0621224120259285
aF-0.8141080141067505
aF-0.68519127368927
aF1.5760551691055298
aF-3.051271438598633
aF-0.09019725769758224
aF0.9959101676940918
aF-1.6287974119186401
aF0.005237414967268705
aF1.60504150390625
aF-3.1164090633392334
aF-5.668975830078125
aF225.05862426757812
aF-2.507594108581543
aF7.710198879241943
aF1.5760551691055298
aF-3.051271438598633
aF-0.09019725024700165
aF0.995910108089447
aF-1.6287974119186401
aF0.005237414501607418
aF1.6062506437301636
aF-3.1191365718841553
aF-4.852239608764648
aF216.04066467285156
aF-2.5771024227142334
aF7.662774085998535
aF1.6039255857467651
aF-3.113892078399658
aF-6.485712051391602
aF234.07659912109375
aF-2.4452569484710693
aF7.757623672485352
aF-1.1742931604385376
aF0.6731996536254883
aF24.513591766357422
aF-30.738994598388672
aF1.0873466730117798
aF-12.869720458984375
aF-1.7143187522888184
aF0.558612048625946
aF19.989398956298828
aF-31.982131958007812
aF1.7980223894119263
aF4.6219329833984375
aF3.1415927410125732
aF3.1415927410125732
aF0.0
aF0.0
aF3.1415927410125732
aF0.0
aF0.08982928842306137
aF1.6666847467422485
aF0.6820635795593262
aF0.06560321152210236
aF0.7525961399078369
aF-0.7283443808555603
aF-0.8578764796257019
aF-0.6910500526428223
aF-0.5304051637649536
aF-0.6412807106971741
aF-0.7632258534431458
aF-0.5544631481170654
aF1.086081624031067
aF-2.5592408180236816
aF-0.5034477710723877
aF0.7644967436790466
aF-0.896249532699585
aF-0.40259793400764465
aF1.6225529909133911
aF-3.1376166343688965
aF-0.8347264528274536
aF209.93997192382812
aF-3.0649900436401367
aF10.875505447387695
aF1.086081624031067
aF-2.5592410564422607
aF-0.5034477114677429
aF0.7644968032836914
aF-0.8962494730949402
aF-0.40259793400764465
aF1.639801025390625
aF3.1259796619415283
aF3.182786703109741
aF203.83929443359375
aF2.9194045066833496
aF14.088237762451172
aF1.6062506437301636
aF-3.1191365718841553
aF-4.852239608764648
aF216.04066467285156
aF-2.5771024227142334
aF7.662774085998535
aF-1.7143187522888184
aF0.558612048625946
aF19.989398956298828
aF-31.982131958007812
aF1.7980223894119263
aF4.6219329833984375
aF-2.226008415222168
aF0.6897596716880798
aF19.789535522460938
aF-23.989288330078125
aF2.3207688331604004
aF18.434844970703125
aF-2.1003496646881104
aF0.6521192789077759
aF19.801776885986328
aF-25.933700561523438
aF2.224817991256714
aF15.179443359375
aF-2.2103946208953857
aF0.5488414764404297
aF19.514591217041016
aF-31.912017822265625
aF2.4535720348358154
aF23.739974975585938
a.