(S'hand_finger_0_stabilized_tip_position_transformed_x'
p0
S'hand_finger_0_bone_3_next_joint_transformed_x'
p1
S'hand_finger_0_bone_2_direction_x'
p2
S'hand_finger_0_tip_position_transformed_x'
p3
S'hand_finger_0_bone_1_direction_y'
p4
S'hand_finger_0_bone_2_basis_z_basis_x'
p5
S'hand_finger_0_direction_x'
p6
S'hand_finger_0_bone_3_basis_y_basis_z'
p7
S'hand_finger_0_bone_1_basis_z_basis_y'
p8
S'hand_finger_0_bone_1_basis_z_basis_x'
p9
S'hand_finger_0_bone_1_direction_x'
p10
S'hand_finger_0_bone_2_basis_z_basis_y'
p11
S'hand_finger_0_direction_y'
p12
S'hand_finger_0_bone_2_direction_y'
p13
S'hand_finger_4_bone_1_basis_z_basis_y'
p14
S'hand_finger_0_bone_3_basis_y_basis_pitch'
p15
S'hand_finger_4_bone_1_direction_x'
p16
S'hand_finger_1_bone_1_basis_z_basis_y'
p17
S'hand_confidence'
p18
S'hand_finger_0_bone_3_basis_z_basis_x'
p19
S'hand_finger_1_bone_1_direction_y'
p20
S'hand_pinch_strength'
p21
S'hand_finger_4_bone_1_basis_z_basis_x'
p22
S'hand_finger_1_bone_3_next_joint_transformed_z'
p23
S'hand_finger_4_bone_1_direction_y'
p24
S'hand_finger_3_bone_1_basis_y_basis_z'
p25
S'hand_finger_0_bone_3_direction_x'
p26
S'hand_finger_4_bone_3_next_joint_transformed_z'
p27
S'hand_finger_1_bone_0_direction_y'
p28
S'hand_finger_1_tip_position_transformed_z'
p29
S'hand_finger_4_tip_position_transformed_z'
p30
S'hand_finger_1_bone_1_basis_z_basis_x'
p31
S'hand_finger_3_bone_2_basis_y_basis_z'
p32
S'hand_finger_0_bone_3_next_joint_transformed_yaw'
p33
S'hand_finger_4_bone_0_direction_yaw'
p34
S'hand_finger_4_bone_1_basis_y_basis_z'
p35
S'hand_finger_0_bone_0_basis_y_basis_yaw'
p36
S'hand_finger_0_bone_2_next_joint_transformed_x'
p37
S'hand_finger_0_bone_3_prev_joint_transformed_x'
p38
S'hand_finger_0_bone_0_basis_y_basis_roll'
p39
S'hand_finger_4_bone_2_basis_z_basis_x'
p40
S'hand_finger_4_bone_0_basis_z_basis_yaw'
p41
S'hand_finger_4_bone_3_prev_joint_transformed_z'
p42
S'hand_finger_1_bone_3_next_joint_transformed_pitch'
p43
S'hand_finger_4_bone_3_next_joint_transformed_pitch'
p44
S'hand_finger_4_bone_2_next_joint_transformed_z'
p45
S'hand_finger_1_bone_3_next_joint_transformed_yaw'
p46
S'hand_finger_0_bone_0_basis_y_basis_x'
p47
S'hand_finger_0_direction_roll'
p48
S'hand_finger_3_bone_0_direction_y'
p49
S'hand_finger_2_tip_position_transformed_z'
p50
S'hand_finger_2_bone_3_next_joint_transformed_yaw'
p51
S'hand_finger_2_bone_0_direction_y'
p52
S'hand_finger_1_direction_y'
p53
S'hand_finger_1_bone_2_basis_z_basis_y'
p54
S'hand_finger_1_bone_0_basis_z_basis_y'
p55
S'hand_finger_1_bone_3_basis_z_basis_y'
p56
S'hand_finger_1_bone_3_direction_y'
p57
S'hand_finger_4_bone_2_direction_x'
p58
S'hand_finger_4_direction_x'
p59
S'hand_finger_4_tip_position_transformed_pitch'
p60
S'hand_finger_2_bone_3_next_joint_transformed_z'
p61
S'hand_finger_2_bone_0_basis_z_basis_y'
p62
S'hand_finger_3_bone_0_basis_z_basis_y'
p63
S'hand_finger_1_bone_2_direction_y'
p64
S'hand_finger_1_bone_1_direction_x'
p65
S'hand_finger_0_tip_position_transformed_yaw'
p66
S'hand_finger_0_bone_1_basis_z_basis_pitch'
p67
S'hand_finger_2_bone_3_prev_joint_transformed_z'
p68
S'hand_finger_4_bone_1_basis_z_basis_yaw'
p69
S'hand_finger_3_tip_position_transformed_z'
p70
S'hand_finger_1_tip_position_transformed_yaw'
p71
S'hand_finger_2_tip_position_transformed_yaw'
p72
S'hand_finger_3_bone_1_direction_y'
p73
S'hand_finger_4_bone_2_next_joint_transformed_pitch'
p74
S'hand_finger_1_bone_0_direction_x'
p75
S'hand_finger_3_bone_1_basis_z_basis_y'
p76
S'hand_finger_2_bone_2_basis_y_basis_z'
p77
S'hand_finger_1_bone_0_basis_z_basis_x'
p78
S'hand_finger_2_stabilized_tip_position_transformed_z'
p79
S'hand_finger_1_bone_0_direction_pitch'
p80
S'hand_finger_0_bone_1_direction_pitch'
p81
S'hand_finger_1_stabilized_tip_position_transformed_z'
p82
S'hand_finger_1_bone_0_basis_z_basis_pitch'
p83
S'hand_finger_1_tip_position_transformed_pitch'
p84
S'hand_finger_1_bone_1_basis_y_basis_z'
p85
S'hand_finger_4_bone_2_basis_y_basis_x'
p86
S'hand_finger_2_bone_3_basis_z_basis_y'
p87
S'hand_finger_4_bone_3_prev_joint_transformed_pitch'
p88
S'hand_finger_0_bone_2_direction_roll'
p89
S'hand_finger_1_bone_0_basis_z_basis_roll'
p90
S'hand_finger_4_bone_0_direction_y'
p91
S'hand_finger_4_bone_0_basis_z_basis_y'
p92
S'hand_finger_1_bone_2_basis_y_basis_z'
p93
S'hand_finger_0_bone_3_direction_roll'
p94
S'hand_finger_4_bone_1_direction_yaw'
p95
S'hand_finger_4_bone_3_prev_joint_transformed_x'
p96
S'hand_finger_0_bone_2_basis_y_basis_z'
p97
S'hand_finger_0_bone_3_direction_yaw'
p98
S'hand_finger_0_bone_1_basis_z_basis_z'
p99
tp100
.