(lp0
F3.1415927410125732
aF3.1415927410125732
aF0.0
aF0.0
aF3.1415927410125732
aF0.0
aF-0.45152607560157776
aF1.4717520475387573
aF0.9750354886054993
aF-0.0968887209892273
aF1.368682861328125
aF-0.19979584217071533
aF2.2121808528900146
aF2.894378662109375
aF0.1982090324163437
aF0.7853707671165466
aF2.815657138824463
aF0.5864349603652954
aF-2.479863166809082
aF0.16227564215660095
aF0.10009487718343735
aF-0.6113962531089783
aF3.0147626399993896
aF0.7849685549736023
aF2.728093385696411
aF2.7116777896881104
aF36.0976448059082
aF78.7267837524414
aF2.943046808242798
aF179.41470336914062
aF0.6617295145988464
aF-2.9793169498443604
aF-0.10009487718343735
aF0.6113962531089783
aF-0.12683004140853882
aF-0.7849685549736023
aF2.0534303188323975
aF2.990729808807373
aF23.585786819458008
aF155.1513214111328
aF2.8592145442962646
aF81.29362487792969
aF3.1415927410125732
aF3.1415927410125732
aF0.0
aF0.0
aF3.1415927410125732
aF0.0
aF-0.19988811016082764
aF1.5169873237609863
aF0.9651226997375488
aF-0.051982492208480835
aF1.3109495639801025
aF-0.25658512115478516
aF2.614257335662842
aF2.669666290283203
aF0.2487710416316986
aF0.48741206526756287
aF2.8526854515075684
aF0.8369841575622559
aF-2.077113389968872
aF0.09329421818256378
aF0.08155416697263718
aF-0.8716233372688293
aF2.974438190460205
aF0.4833441972732544
aF0.40220728516578674
aF1.0644792318344116
aF-3.0482983589172363
aF-0.08155416697263718
aF0.8716233372688293
aF-0.16715456545352936
aF-0.4833441972732544
aF1.0
aF-0.5273354053497314
aF-0.4719263017177582
aF-0.2487710416316986
aF-0.48741206526756287
aF-0.2889072597026825
aF-0.8369841575622559
aF1.845626950263977
aF3.0823111534118652
aF11.701061248779297
aF197.1497344970703
aF2.9341306686401367
aF55.589481353759766
aF-1.1695740222930908
aF0.1755320131778717
aF1.2889761924743652
aF-7.267679691314697
aF0.39598122239112854
aF-3.083202362060547
aF0.4296687841415405
aF1.6494497060775757
aF3.1128594875335693
aF5.403376579284668
aF188.00265502929688
aF2.7919187545776367
aF14.817619323730469
aF35.3651123046875
aF1.8848600387573242
aF3.0569536685943604
aF17.00728416442871
aF200.4591064453125
aF2.8861002922058105
aF65.1119384765625
aF2.0534303188323975
aF2.990729808807373
aF23.585786819458008
aF155.1513214111328
aF2.8592145442962646
aF81.29362487792969
aF3.061763048171997
aF2.0863876342773438
aF7.058099746704102
aF3.9999847412109375
aF3.001357316970825
aF50.00001525878906
aF-1.2747191190719604
aF0.12043163925409317
aF4.858902931213379
aF-40.150489807128906
aF0.3776770830154419
aF-12.247634887695312
aF0.7843190431594849
aF-2.546091079711914
aF-0.43169349431991577
aF0.6371360421180725
aF-0.5944997072219849
aF-0.6385126113891602
aF1.7235586643218994
aF-2.996628761291504
aF-32.21845245361328
aF220.692626953125
aF-2.382772445678711
aF33.97824478149414
aF1.6488769054412842
aF-2.968017101287842
aF-36.1412353515625
aF206.12095642089844
aF-1.9904996156692505
aF16.1268253326416
aF2.5029520988464355
aF-2.8662285804748535
aF-0.678193986415863
aF2.40033221244812
aF-2.9348223209381104
aF3.233062982559204
aF3.1415927410125732
aF3.1415927410125732
aF0.0
aF0.0
aF3.1415927410125732
aF0.0
aF2.326223134994507
aF2.347858190536499
aF0.5949565172195435
aF0.5851188898086548
aF2.317905902862549
aF0.551055908203125
aF-3.0375421047210693
aF-1.4446614980697632
aF-0.6336433291435242
aF-0.08035103976726532
aF-2.45267915725708
aF0.7694412469863892
aF-1.9514827728271484
aF0.5497685074806213
aF0.4944925308227539
aF-0.8069570064544678
aF2.1493451595306396
aF0.3229513466358185
aF2.0702297687530518
aF-3.1139328479766846
aF-4.119248867034912
aF148.8876190185547
aF-3.090924024581909
aF81.22816467285156
aF3.1415927410125732
aF3.1415927410125732
aF0.0
aF0.0
aF3.1415927410125732
aF0.0
aF2.0702297687530518
aF-3.1139328479766846
aF-4.119248867034912
aF148.8876190185547
aF-3.090924024581909
aF81.22816467285156
aF2.0702297687530518
aF-3.1139328479766846
aF-4.119248867034912
aF148.8876190185547
aF-3.090924024581909
aF81.22816467285156
aF-3.029218912124634
aF-1.2699475288391113
aF-19.338260650634766
aF-6.0000152587890625
aF-2.792750835418701
aF53.168495178222656
aF-3.029218912124634
aF-1.2699475288391113
aF-19.338260650634766
aF-6.0000152587890625
aF-2.792750835418701
aF53.168495178222656
aF3.1415927410125732
aF3.1415927410125732
aF0.0
aF0.0
aF3.1415927410125732
aF0.0
aF2.1075680255889893
aF2.60429048538208
aF0.4557255506515503
aF0.7649374008178711
aF2.3555908203125
aF0.4551757276058197
aF2.961439609527588
aF-1.7095149755477905
aF-0.7888120412826538
aF0.11013022810220718
aF-2.2248244285583496
aF0.6046874523162842
aF-2.370912790298462
aF0.5762829780578613
aF0.41241946816444397
aF-0.6346195936203003
aF2.5786795616149902
aF0.6535810232162476
aF1.9549996852874756
aF-3.0583252906799316
aF-13.650262832641602
aF163.55368041992188
aF-2.9380176067352295
aF66.12390899658203
aF-2.370912551879883
aF0.5762828588485718
aF0.4124194383621216
aF-0.6346197128295898
aF2.5786795616149902
aF0.6535810232162476
aF1.8496131896972656
aF-3.0122475624084473
aF-23.181276321411133
aF178.21974182128906
aF-2.7151191234588623
aF51.019649505615234
aF2.0702297687530518
aF-3.1139328479766846
aF-4.119248867034912
aF148.8876190185547
aF-3.090924024581909
aF81.22816467285156
aF-3.029218912124634
aF-1.2699475288391113
aF-19.338260650634766
aF-6.0000152587890625
aF-2.792750835418701
aF53.168495178222656
aF-2.0556254386901855
aF-0.9670716524124146
aF-31.509159088134766
aF-21.72930908203125
aF-1.9192408323287964
aF11.44622802734375
aF3.1415927410125732
aF3.1415927410125732
aF0.0
aF0.0
aF3.1415927410125732
aF0.0
aF2.1075680255889893
aF2.60429048538208
aF0.4557255506515503
aF0.7649374008178711
aF2.3555908203125
aF0.4551757276058197
aF2.9904916286468506
aF-1.691590666770935
aF-0.7784310579299927
aF0.09449011087417603
aF-2.243837356567383
aF0.6205776929855347
aF-2.357273578643799
aF0.5955015420913696
aF0.43169349431991577
aF-0.6371360421180725
aF2.547092914581299
aF0.6385126113891602
aF1.7849125862121582
aF-2.9836041927337646
aF-29.995559692382812
aF188.2769317626953
aF-2.5092830657958984
aF40.94072723388672
aF-2.357273817062378
aF0.595501720905304
aF0.43169358372688293
aF-0.637135922908783
aF2.547092914581299
aF0.6385126709938049
aF1.725163459777832
aF-2.958085536956787
aF-36.80984115600586
aF198.33412170410156
aF-2.268524169921875
aF30.861806869506836
aF1.8496131896972656
aF-3.0122475624084473
aF-23.181276321411133
aF178.21974182128906
aF-2.7151191234588623
aF51.019649505615234
aF-2.0556254386901855
aF-0.9670716524124146
aF-31.509159088134766
aF-21.72930908203125
aF-1.9192408323287964
aF11.44622802734375
aF-1.086323618888855
aF-0.8996928930282593
aF-40.535789489746094
aF-32.18751525878906
aF-1.174940586090088
aF-16.940582275390625
aF3.1415927410125732
aF3.1415927410125732
aF0.0
aF0.0
aF3.1415927410125732
aF0.0
aF2.1075680255889893
aF2.60429048538208
aF0.4557255506515503
aF0.7649374008178711
aF2.3555908203125
aF0.4551757276058197
aF2.0623111724853516
aF-1.9951757192611694
aF-0.8899308443069458
aF0.40210244059562683
aF-1.8081215620040894
aF0.21525973081588745
aF-2.6142263412475586
aF-0.036486171185970306
aF-0.01836705394089222
aF-0.5031743049621582
aF-3.12033748626709
aF0.8639897704124451
aF1.675912618637085
aF-2.9638354778289795
aF-36.61083221435547
aF203.7860107421875
aF-2.1018035411834717
aF21.500476837158203
aF-2.6142261028289795
aF-0.036486152559518814
aF-0.01836705207824707
aF-0.5031744837760925
aF-3.12033748626709
aF0.8639896512031555
aF1.6287473440170288
aF-2.969296932220459
aF-36.411827087402344
aF209.2379150390625
aF-1.8925931453704834
aF12.139148712158203
aF1.725163459777832
aF-2.958085536956787
aF-36.80984115600586
aF198.33412170410156
aF-2.268524169921875
aF30.861806869506836
aF-1.086323618888855
aF-0.8996928930282593
aF-40.535789489746094
aF-32.18751525878906
aF-1.174940586090088
aF-16.940582275390625
aF-0.8747904300689697
aF-0.702256977558136
aF-35.91450500488281
aF-42.44441223144531
aF-0.791743278503418
aF-35.46160888671875
aF-0.9213843941688538
aF-0.7329737544059753
aF-36.51449966430664
aF-40.55872344970703
aF-0.870162844657898
aF-30.795303344726562
aF-0.46976688504219055
aF-1.1390392780303955
aF-38.06641387939453
aF-17.539077758789062
aF-0.8338136076927185
aF-34.548004150390625
aF-1.433750033378601
aF0.029813280329108238
aF0.029529618099331856
aF-0.9901918768882751
aF0.21296317875385284
aF-0.13655807077884674
aF1.6933001279830933
aF-3.039376735687256
aF-17.72467803955078
aF172.79994201660156
aF-2.4469830989837646
aF21.27518081665039
aF1.683616280555725
aF-3.0269768238067627
aF-19.160442352294922
aF166.43821716308594
aF-2.34822940826416
aF18.857620239257812
aF-0.922954261302948
aF0.6213789582252502
aF7.183045387268066
aF-10.032286643981934
aF0.757694661617279
aF-7.592484474182129
aF3.1415927410125732
aF3.1415927410125732
aF0.0
aF0.0
aF3.1415927410125732
aF0.0
aF0.277320921421051
aF1.671868920326233
aF0.9377284646034241
aF0.0951026976108551
aF1.2285349369049072
aF-0.3340969979763031
aF2.4668283462524414
aF2.810349225997925
aF0.21005472540855408
aF0.6107757091522217
aF2.873091697692871
aF0.7634330987930298
aF-2.183666229248047
aF0.33841660618782043
aF0.2766628861427307
aF-0.7860715985298157
aF2.677539348602295
aF0.5527649521827698
aF1.9230666160583496
aF-3.127901077270508
aF-2.638970375061035
aF192.73348999023438
aF-3.1043622493743896
aF70.84949493408203
aF-2.183666229248047
aF0.33841657638549805
aF0.2766628861427307
aF-0.7860716581344604
aF2.677539348602295
aF0.5527649521827698
aF1.8034991025924683
aF-3.0866971015930176
aF-12.062108039855957
aF219.50709533691406
aF-2.913754463195801
aF52.02231979370117
aF2.066201686859131
aF3.1007370948791504
aF6.784167289733887
aF165.95989990234375
aF3.06608510017395
aF89.67666625976562
aF2.8687565326690674
aF-2.365978717803955
aF-11.870345115661621
aF12.104934692382812
aF-2.8737924098968506
aF43.260650634765625
aF0.08618155866861343
aF-1.6568597555160522
aF-23.181285858154297
aF2.0
aF-0.7860877513885498
aF-23.149337768554688
aF3.1415927410125732
aF3.1415927410125732
aF0.0
aF0.0
aF3.1415927410125732
aF0.0
aF0.22287914156913757
aF1.64682137966156
aF0.9454365968704224
aF0.0720156878232956
aF1.2465710639953613
aF-0.3177473545074463
aF1.1089714765548706
aF-2.9027886390686035
aF-0.2129470705986023
aF0.8747074007987976
aF-0.4549105167388916
aF-0.4353625178337097
aF2.6242852210998535
aF2.6664156913757324
aF0.24658304452896118
aF0.4792710244655609
aF2.8568058013916016
aF0.8423159122467041
aF1.737209439277649
aF-3.060964345932007
aF-16.966644287109375
aF209.97439575195312
aF-2.693204402923584
aF35.268653869628906
aF2.6242852210998535
aF2.6664154529571533
aF0.2465830296278
aF0.47927093505859375
aF2.8568058013916016
aF0.8423159122467041
aF1.6629059314727783
aF-3.032907724380493
aF-21.87118148803711
aF200.4416961669922
aF-2.273282527923584
aF18.514991760253906
aF1.8034991025924683
aF-3.0866971015930176
aF-12.062108039855957
aF219.50709533691406
aF-2.913754463195801
aF52.02231979370117
aF0.08618155866861343
aF-1.6568597555160522
aF-23.181285858154297
aF2.0
aF-0.7860877513885498
aF-23.149337768554688
aF-1.0138019323349
aF-0.548031210899353
aF-23.059696197509766
aF-37.77803039550781
aF-0.7753668427467346
aF-23.52703857421875
aF3.1415927410125732
aF3.1415927410125732
aF0.0
aF0.0
aF3.1415927410125732
aF0.0
aF0.22287914156913757
aF1.64682137966156
aF0.9454365968704224
aF0.0720156878232956
aF1.2465710639953613
aF-0.3177473545074463
aF0.12691229581832886
aF-1.9242866039276123
aF-0.32446518540382385
aF0.11972403526306152
aF-0.3329325020313263
aF-0.9382901787757874
aF1.7078425884246826
aF-3.1117794513702393
aF-0.029529618099331856
aF0.9901918768882751
aF-2.9286293983459473
aF0.13655807077884674
aF1.6602630615234375
aF-3.028324842453003
aF-21.54074478149414
aF189.3614501953125
aF-2.238543748855591
aF16.986907958984375
aF1.707842469215393
aF-3.1117794513702393
aF-0.029529623687267303
aF0.9901918172836304
aF-2.9286293983459473
aF0.13655798137187958
aF1.6572903394699097
aF-3.0231781005859375
aF-21.210308074951172
aF178.28118896484375
aF-2.2006139755249023
aF15.458822250366211
aF1.6629059314727783
aF-3.032907724380493
aF-21.87118148803711
aF200.4416961669922
aF-2.273282527923584
aF18.514991760253906
aF-1.0138019323349
aF-0.548031210899353
aF-23.059696197509766
aF-37.77803039550781
aF-0.7753668427467346
aF-23.52703857421875
aF-1.460700511932373
aF-0.3821388781070709
aF-20.485748291015625
aF-50.97289276123047
aF-1.302379846572876
aF-5.6346893310546875
aF3.1415927410125732
aF3.1415927410125732
aF0.0
aF0.0
aF3.1415927410125732
aF0.0
aF0.22287914156913757
aF1.64682137966156
aF0.9454365968704224
aF0.0720156878232956
aF1.2465710639953613
aF-0.3177473545074463
aF-0.30250659584999084
aF-0.7857639789581299
aF-0.2857050895690918
aF-0.28549614548683167
aF-0.3027147054672241
aF-0.9148030281066895
aF1.3155767917633057
aF-2.9791762828826904
aF-0.15659581124782562
aF0.9556702971458435
aF-0.5607774257659912
aF-0.24934324622154236
aF1.6725462675094604
aF-3.0251383781433105
aF-19.971633911132812
aF170.72183227539062
aF-2.2883756160736084
aF17.431127548217773
aF1.3155766725540161
aF-2.9791762828826904
aF-0.15659590065479279
aF0.955670177936554
aF-0.5607775449752808
aF-0.24934335052967072
aF1.6891613006591797
aF-3.0272815227508545
aF-18.732961654663086
aF163.16249084472656
aF-2.3737735748291016
aF19.403432846069336
aF1.6572903394699097
aF-3.0231781005859375
aF-21.210308074951172
aF178.28118896484375
aF-2.2006139755249023
aF15.458822250366211
aF-1.460700511932373
aF-0.3821388781070709
aF-20.485748291015625
aF-50.97289276123047
aF-1.302379846572876
aF-5.6346893310546875
aF-1.7463148832321167
aF-0.32471877336502075
aF-18.321022033691406
aF-54.42405700683594
aF-2.0556633472442627
aF9.651748657226562
aF-1.6919050216674805
aF-0.33796095848083496
aF-18.76382827758789
aF-53.39060974121094
aF-1.904168725013733
aF6.49786376953125
aF-1.6174851655960083
aF-0.3654004633426666
aF-18.329147338867188
aF-47.90918731689453
aF-1.692319631576538
aF2.2384490966796875
aF-1.5311784744262695
aF-0.15929080545902252
aF-0.15849669277668
aF-0.9865847229957581
aF-1.3288919925689697
aF-0.039106838405132294
aF1.6867692470550537
aF-3.0682082176208496
aF-12.024186134338379
aF163.55764770507812
aF-2.5786426067352295
aF19.05375099182129
aF1.6807713508605957
aF-3.058673143386841
aF-13.157405853271484
aF158.31285095214844
aF-2.4963855743408203
aF17.48099708557129
aF-1.1805282831192017
aF0.6936209797859192
aF9.393366813659668
aF-11.297682762145996
aF1.1113455295562744
aF-4.647508144378662
aF3.1415927410125732
aF3.1415927410125732
aF0.0
aF0.0
aF3.1415927410125732
aF0.0
aF-0.2987235188484192
aF1.4433363676071167
aF0.9168443083763123
aF-0.11749797314405441
aF1.1764280796051025
aF-0.3815635144710541
aF2.4379756450653076
aF2.587581157684326
aF0.37158793210983276
aF0.600654661655426
aF2.658217430114746
aF0.707909882068634
aF-2.215305805206299
aF0.1825733184814453
aF0.14600993692874908
aF-0.7908275127410889
aF2.9007067680358887
aF0.5943676829338074
aF1.9062010049819946
aF3.0755722522735596
aF12.824446678161621
aF193.9676971435547
aF2.9541430473327637
aF67.6122817993164
aF-2.215305805206299
aF0.18257330358028412
aF0.1460099220275879
aF-0.7908275127410889
aF2.9007067680358887
aF0.5943676233291626
aF1.7878752946853638
aF3.1046714782714844
aF8.108325958251953
aF219.5114288330078
aF2.975654363632202
aF48.41420364379883
aF2.0467097759246826
aF3.0378215312957764
aF17.54056739807129
aF168.42396545410156
aF2.942220687866211
aF86.81035614013672
aF2.8187813758850098
aF-3.076767921447754
aF-0.8817348480224609
aF13.582778930664062
aF-3.1198809146881104
aF40.60472869873047
aF0.17035944759845734
aF-2.532750368118286
aF-2.7887773513793945
aF3.9999847412109375
aF-0.11936645209789276
aF-23.252090454101562
aF3.1415927410125732
aF3.1415927410125732
aF0.0
aF0.0
aF3.1415927410125732
aF0.0
aF-0.34544241428375244
aF1.4270817041397095
aF0.9195452332496643
aF-0.13306954503059387
aF1.1884623765945435
aF-0.3697689175605774
aF1.0298206806182861
aF-3.0450291633605957
aF-0.08274837583303452
aF0.854266881942749
aF-0.15986213088035583
aF-0.513206422328949
aF2.5660595893859863
aF2.4888744354248047
aF0.3841734826564789
aF0.5025143027305603
aF2.6811411380767822
aF0.7745257616043091
aF1.7191509008407593
aF-3.1393625736236572
aF-0.4645051956176758
aF208.29782104492188
aF-3.1266725063323975
aF31.13066291809082
aF2.5660595893859863
aF2.4888744354248047
aF0.3841734826564789
aF0.5025143623352051
aF2.6811411380767822
aF0.7745257019996643
aF1.6409410238265991
aF-3.0957696437835693
aF-9.037336349487305
aF197.08421325683594
aF-2.5633561611175537
aF13.847121238708496
aF1.7878752946853638
aF3.1046714782714844
aF8.108325958251953
aF219.5114288330078
aF2.975654363632202
aF48.41420364379883
aF0.17035944759845734
aF-2.532750368118286
aF-2.7887773513793945
aF3.9999847412109375
aF-0.11936645209789276
aF-23.252090454101562
aF-1.072954773902893
aF-0.2277626097202301
aF-9.301224708557129
aF-40.128753662109375
aF-0.4031100273132324
aF-21.810104370117188
aF3.1415927410125732
aF3.1415927410125732
aF0.0
aF0.0
aF3.1415927410125732
aF0.0
aF-0.34544241428375244
aF1.4270817041397095
aF0.9195452332496643
aF-0.13306954503059387
aF1.1884623765945435
aF-0.3697689175605774
aF0.10152160376310349
aF-1.8279507160186768
aF-0.35960444808006287
aF0.09456765651702881
aF-0.3695794343948364
aF-0.9283003807067871
aF1.6104141473770142
aF2.982301950454712
aF0.15849669277668
aF0.9865847229957581
aF1.812700629234314
aF0.039106838405132294
aF1.6430904865264893
aF-3.0812413692474365
aF-11.123945236206055
aF184.0958251953125
aF-2.4462475776672363
aF13.332279205322266
aF1.6104141473770142
aF2.982301950454712
aF0.15849669277668
aF0.9865847229957581
aF1.812700629234314
aF0.03910684213042259
aF1.645565390586853
aF-3.0645394325256348
aF-13.210554122924805
aF171.10743713378906
aF-2.341092109680176
aF12.817438125610352
aF1.6409410238265991
aF-3.0957696437835693
aF-9.037336349487305
aF197.08421325683594
aF-2.5633561611175537
aF13.847121238708496
aF-1.072954773902893
aF-0.2277626097202301
aF-9.301224708557129
aF-40.128753662109375
aF-0.4031100273132324
aF-21.810104370117188
aF-1.5706833600997925
aF-0.2110065370798111
aF-11.714354515075684
aF-54.690155029296875
aF-1.5702687501907349
aF-0.0061798095703125
aF3.1415927410125732
aF3.1415927410125732
aF0.0
aF0.0
aF3.1415927410125732
aF0.0
aF-0.34544241428375244
aF1.4270817041397095
aF0.9195452332496643
aF-0.13306954503059387
aF1.1884623765945435
aF-0.3697689175605774
aF-0.32760727405548096
aF-0.9253457188606262
aF-0.3929313123226166
aF-0.29589715600013733
aF-0.4239365756511688
aF-0.8706606030464172
aF1.2404351234436035
aF3.134779453277588
aF0.006444844882935286
aF0.9459055662155151
aF0.019865702837705612
aF-0.32437801361083984
aF1.666522741317749
aF-3.0603208541870117
aF-13.266624450683594
aF162.8780517578125
aF-2.438100814819336
aF15.6395263671875
aF1.2404351234436035
aF3.134779214859009
aF0.006444866303354502
aF0.9459056258201599
aF0.019865768030285835
aF-0.32437801361083984
aF1.689611792564392
aF-3.055656671524048
aF-13.322694778442383
aF154.648681640625
aF-2.5164883136749268
aF18.46161460876465
aF1.645565390586853
aF-3.0645394325256348
aF-13.210554122924805
aF171.10743713378906
aF-2.341092109680176
aF12.817438125610352
aF-1.5706833600997925
aF-0.2110065370798111
aF-11.714354515075684
aF-54.690155029296875
aF-1.5702687501907349
aF-0.0061798095703125
aF-1.8567688465118408
aF-0.2108163684606552
aF-12.415228843688965
aF-58.01615905761719
aF-2.5124523639678955
aF17.05860137939453
aF-1.8017246723175049
aF-0.21072721481323242
aF-12.194563865661621
aF-57.00983428955078
aF-2.4034171104431152
aF13.404312133789062
aF-1.7520302534103394
aF-0.21923592686653137
aF-11.77704906463623
aF-52.855186462402344
aF-2.2590463161468506
aF9.6854248046875
aF-1.5459107160568237
aF-0.3125292658805847
aF-0.30738016963005066
aF-0.9512921571731567
aF-1.493915319442749
aF-0.0236783716827631
aF1.702854871749878
aF3.135286331176758
aF1.0211468935012817
aF161.92039489746094
aF3.094151020050049
aF21.508155822753906
aF1.6874196529388428
aF3.140860080718994
aF0.11535955965518951
aF157.4556427001953
aF3.1353390216827393
aF18.446699142456055
aF-1.0933032035827637
aF0.8032662272453308
aF9.157926559448242
aF-8.836369514465332
aF1.1077405214309692
aF-4.572190761566162
aF3.1415927410125732
aF3.1415927410125732
aF0.0
aF0.0
aF3.1415927410125732
aF0.0
aF-0.6814201474189758
aF1.2709524631500244
aF0.8976996541023254
aF-0.27753743529319763
aF1.206593632698059
aF-0.3422108590602875
aF2.4605295658111572
aF2.47944712638855
aF0.44060787558555603
aF0.5652090907096863
aF2.5781450271606445
aF0.6974262595176697
aF-2.2519288063049316
aF-0.00018176526646129787
aF-0.000141206182888709
aF-0.7768601179122925
aF-3.1413683891296387
aF0.629673182964325
aF1.8962922096252441
aF2.995201587677002
aF28.121522903442383
aF190.72439575195312
aF2.729705572128296
aF64.3694839477539
aF-2.2519288063049316
aF-0.00018176960293203592
aF-0.000141209558933042
aF-0.7768601179122925
aF-3.1413683891296387
aF0.6296731233596802
aF1.7837352752685547
aF3.0104610919952393
aF28.12561798095703
aF213.2533416748047
aF2.5938661098480225
aF46.10895919799805
aF2.0274386405944824
aF2.9759531021118164
aF28.117427825927734
aF168.19544982910156
aF2.8136022090911865
aF82.6300048828125
aF2.833789348602295
aF2.451195478439331
aF10.41072940826416
aF12.603729248046875
aF2.8847978115081787
aF39.64595031738281
aF0.22748520970344543
aF1.7961643934249878
aF17.447166442871094
aF3.9999847412109375
aF0.7902370095252991
aF-17.279129028320312
aF3.1415927410125732
aF3.1415927410125732
aF0.0
aF0.0
aF3.1415927410125732
aF0.0
aF-0.6933696269989014
aF1.2667986154556274
aF0.8976864814758301
aF-0.2816239297389984
aF1.2098219394683838
aF-0.33889076113700867
aF1.005774974822998
aF3.0673398971557617
aF0.06270404905080795
aF0.8429151773452759
aF0.11680564284324646
aF-0.5343801975250244
aF2.607027292251587
aF2.3811228275299072
aF0.4361504316329956
aF0.45845603942871094
aF2.6286261081695557
aF0.7743325233459473
aF1.7174122333526611
aF3.048114061355591
aF19.10384750366211
aF203.77017211914062
aF2.575941324234009
aF30.091890335083008
aF2.607027292251587
aF2.3811228275299072
aF0.4361504316329956
aF0.45845600962638855
aF2.6286261081695557
aF0.774332582950592
aF1.6431134939193726
aF3.0897464752197266
aF10.082075119018555
aF194.28701782226562
aF2.5199973583221436
aF14.074820518493652
aF1.7837352752685547
aF3.0104610919952393
aF28.12561798095703
aF213.2533416748047
aF2.5938661098480225
aF46.10895919799805
aF0.22748520970344543
aF1.7961643934249878
aF17.447166442871094
aF3.9999847412109375
aF0.7902370095252991
aF-17.279129028320312
aF-1.1197023391723633
aF0.24760468304157257
aF9.238334655761719
aF-36.545204162597656
aF0.48098284006118774
aF-17.702682495117188
aF3.1415927410125732
aF3.1415927410125732
aF0.0
aF0.0
aF3.1415927410125732
aF0.0
aF-0.6933696269989014
aF1.2667986154556274
aF0.8976864814758301
aF-0.2816239297389984
aF1.2098219394683838
aF-0.33889076113700867
aF0.13257279992103577
aF-1.9489461183547974
aF-0.3157157301902771
aF0.12542405724525452
aF-0.3238604664802551
aF-0.9405277371406555
aF1.59568190574646
aF2.8290634155273438
aF0.30738016963005066
aF0.9512921571731567
aF1.6476773023605347
aF0.0236783716827631
aF1.6462821960449219
aF3.1078855991363525
aF6.1399245262146
aF182.08670043945312
aF2.722191572189331
aF13.77114486694336
aF1.59568190574646
aF2.8290634155273438
aF0.3073800802230835
aF0.9512921571731567
aF1.6476774215698242
aF0.02367836982011795
aF1.6499042510986328
aF3.1286566257476807
aF2.1977736949920654
aF169.88636779785156
aF2.979827404022217
aF13.467470169067383
aF1.6431134939193726
aF3.0897464752197266
aF10.082075119018555
aF194.28701782226562
aF2.5199973583221436
aF14.074820518493652
aF-1.1197023391723633
aF0.24760468304157257
aF9.238334655761719
aF-36.545204162597656
aF0.48098284006118774
aF-17.702682495117188
aF-1.6223915815353394
aF0.059904150664806366
aF3.05325984954834
aF-50.908103942871094
aF2.2816598415374756
aF2.6289520263671875
aF3.1415927410125732
aF3.1415927410125732
aF0.0
aF0.0
aF3.1415927410125732
aF0.0
aF-0.6933696269989014
aF1.2667986154556274
aF0.8976864814758301
aF-0.2816239297389984
aF1.2098219394683838
aF-0.33889076113700867
aF-0.2843751907348633
aF-1.0136735439300537
aF-0.4106457829475403
aF-0.2558111846446991
aF-0.43871837854385376
aF-0.8751746416091919
aF1.2134605646133423
aF2.970510482788086
aF0.15977808833122253
aF0.9247965216636658
aF0.4333989918231964
aF-0.34528592228889465
aF1.6720885038375854
aF3.136554002761841
aF0.8156933188438416
aF161.88687133789062
aF3.09205961227417
aF16.454193115234375
aF1.2134605646133423
aF2.970510482788086
aF0.15977807343006134
aF0.924796462059021
aF0.4333989918231964
aF-0.34528589248657227
aF1.6964627504348755
aF-3.1379120349884033
aF-0.5663870573043823
aF153.88739013671875
aF-3.112467050552368
aF19.440916061401367
aF1.6499042510986328
aF3.1286566257476807
aF2.1977736949920654
aF169.88636779785156
aF2.979827404022217
aF13.467470169067383
aF-1.6223915815353394
aF0.059904150664806366
aF3.05325984954834
aF-50.908103942871094
aF2.2816598415374756
aF2.6289520263671875
aF-1.9107081890106201
aF-0.005800649989396334
aF-0.3155250549316406
aF-54.3941650390625
aF-3.1251912117004395
aF19.235824584960938
aF-1.8571771383285522
aF0.007728245109319687
aF0.41205883026123047
aF-53.31748962402344
aF3.115354061126709
aF15.700698852539062
aF-1.8404213190078735
aF0.0055557116866111755
aF0.26864147186279297
aF-48.353607177734375
aF3.1214916706085205
aF13.36273193359375
aF-1.5750435590744019
aF-0.4821794033050537
aF-0.46370792388916016
aF-0.8859801292419434
aF-1.5789111852645874
aF0.0037630030419677496
aF1.7098149061203003
aF3.0527539253234863
aF15.130885124206543
aF169.8704833984375
aF2.5746989250183105
aF23.768468856811523
aF1.703513503074646
aF3.0531015396118164
aF14.634239196777344
aF164.94314575195312
aF2.555034637451172
aF22.020217895507812
aF-0.931840181350708
aF0.8806158900260925
aF7.846461296081543
aF-6.478348255157471
aF1.0205920934677124
aF-4.812911033630371
aF3.1415927410125732
aF3.1415927410125732
aF0.0
aF0.0
aF3.1415927410125732
aF0.0
aF-0.8783257007598877
aF1.0569772720336914
aF0.806425929069519
aF-0.45513346791267395
aF1.1329476833343506
aF-0.37753239274024963
aF2.5685794353485107
aF2.2302465438842773
aF0.5731140971183777
aF0.4442920982837677
aF2.447458028793335
aF0.6885817050933838
aF-2.2469615936279297
aF-0.1865692287683487
aF-0.14566189050674438
aF-0.7716593146324158
aF-2.910526752471924
aF0.6191321015357971
aF1.8797852993011475
aF2.9207465648651123
aF41.102317810058594
aF183.077392578125
aF2.528644323348999
aF58.44070053100586
aF-2.2469615936279297
aF-0.1865692287683487
aF-0.14566189050674438
aF-0.7716593146324158
aF-2.910526752471924
aF0.6191321015357971
aF1.7731956243515015
aF2.924208164215088
aF45.012611389160156
aF203.79258728027344
aF2.3194448947906494
aF41.820098876953125
aF2.003838062286377
aF2.916409492492676
aF37.19202423095703
aF162.36219787597656
aF2.681560516357422
aF75.0613021850586
aF3.006499767303467
aF1.8302088975906372
aF21.41407012939453
aF5.683135986328125
aF2.6682724952697754
aF41.81211853027344
aF-1.5684281606809236e-06
aF1.5707958936691284
aF35.33743667602539
aF-1.52587890625e-05
aF1.302142858505249
aF-9.728713989257812
aF3.1415927410125732
aF3.1415927410125732
aF0.0
aF0.0
aF3.1415927410125732
aF0.0
aF-0.8170168399810791
aF1.086973786354065
aF0.8112589716911316
aF-0.4262996315956116
aF1.1125574111938477
aF-0.4001593589782715
aF0.9964171648025513
aF2.9381844997406006
aF0.17062276601791382
aF0.8272192478179932
aF0.3085364103317261
aF-0.5353467464447021
aF2.684293508529663
aF2.1503379344940186
aF0.5592376589775085
aF0.3660285770893097
aF2.496915102005005
aF0.7438254952430725
aF1.7195556163787842
aF2.9622573852539062
aF35.85789108276367
aF197.80068969726562
aF2.261606454849243
aF29.6436767578125
aF2.684293508529663
aF2.1503381729125977
aF0.5592376589775085
aF0.36602869629859924
aF2.496915102005005
aF0.743825376033783
aF1.661611795425415
aF3.0032641887664795
aF26.703168869018555
aF191.80880737304688
aF2.150067090988159
aF17.467254638671875
aF1.7731956243515015
aF2.924208164215088
aF45.012611389160156
aF203.79258728027344
aF2.3194448947906494
aF41.820098876953125
aF-1.5684281606809236e-06
aF1.5707958936691284
aF35.33743667602539
aF-1.52587890625e-05
aF1.302142858505249
aF-9.728713989257812
aF-1.183701992034912
aF0.6730551719665527
aF24.538105010986328
aF-30.778854370117188
aF1.0981159210205078
aF-12.547378540039062
aF3.1415927410125732
aF3.1415927410125732
aF0.0
aF0.0
aF3.1415927410125732
aF0.0
aF-0.8170168399810791
aF1.086973786354065
aF0.8112589716911316
aF-0.4262996315956116
aF1.1125574111938477
aF-0.4001593589782715
aF0.19657360017299652
aF-2.044358015060425
aF-0.3561374247074127
aF0.1825042963027954
aF-0.3706494867801666
aF-0.9164378643035889
aF1.5665490627288818
aF2.6594133377075195
aF0.46370792388916016
aF0.8859801292419434
aF1.5626814365386963
aF-0.0037630030419677496
aF1.6657365560531616
aF3.0197510719299316
aF22.50429344177246
aF183.7862548828125
aF2.231783866882324
aF17.501327514648438
aF1.5665490627288818
aF2.6594133377075195
aF0.463707834482193
aF0.8859801888465881
aF1.5626815557479858
aF-0.00376298394985497
aF1.670234203338623
aF3.0378189086914062
aF18.305418014526367
aF175.76370239257812
aF2.3347134590148926
aF17.535402297973633
aF1.661611795425415
aF3.0032641887664795
aF26.703168869018555
aF191.80880737304688
aF2.150067090988159
aF17.467254638671875
aF-1.183701992034912
aF0.6730551719665527
aF24.538105010986328
aF-30.778854370117188
aF1.0981159210205078
aF-12.547378540039062
aF-1.5901380777359009
aF0.40148353576660156
aF17.24982452392578
aF-40.631507873535156
aF1.616329312324524
aF0.785980224609375
aF3.1415927410125732
aF3.1415927410125732
aF0.0
aF0.0
aF3.1415927410125732
aF0.0
aF-0.8170168399810791
aF1.086973786354065
aF0.8112589716911316
aF-0.4262996315956116
aF1.1125574111938477
aF-0.4001593589782715
aF-0.2029682844877243
aF-1.2410835027694702
aF-0.5075458288192749
aF-0.173684224486351
aF-0.5414496660232544
aF-0.8439378142356873
aF1.1881855726242065
aF2.8255789279937744
aF0.29026898741722107
aF0.8877513408660889
aF0.6822955012321472
aF-0.3572694957256317
aF1.69107186794281
aF3.0470852851867676
aF15.9890718460083
aF168.679443359375
aF2.4764981269836426
aF20.38641357421875
aF1.1881853342056274
aF2.8255789279937744
aF0.29026907682418823
aF0.8877512216567993
aF0.6822954416275024
aF-0.35726964473724365
aF1.7136174440383911
aF3.057182788848877
aF13.672725677490234
aF161.59519958496094
aF2.6097517013549805
aF23.237422943115234
aF1.670234203338623
aF3.0378189086914062
aF18.305418014526367
aF175.76370239257812
aF2.3347134590148926
aF17.535402297973633
aF-1.5901380777359009
aF0.40148353576660156
aF17.24982452392578
aF-40.631507873535156
aF1.616329312324524
aF0.785980224609375
aF-1.9103630781173706
aF0.26783448457717896
aF12.052167892456055
aF-43.917388916015625
aF2.481116771697998
aF15.5137939453125
aF-1.844396710395813
aF0.29568830132484436
aF13.118429183959961
aF-43.065147399902344
aF2.315243721008301
aF12.085723876953125
aF-1.7892886400222778
aF0.3186952769756317
aF12.89304256439209
aF-39.076690673828125
aF2.1631414890289307
aF8.676467895507812
a.